
./target/aarch64-ruspiro/release/kernel:     file format elf64-littleaarch64


Disassembly of section .text:

0000000000080000 <__boot>:
   80000:	d53800a0 	mrs	x0, mpidr_el1
   80004:	92400400 	and	x0, x0, #0x3
   80008:	58000701 	ldr	x1, 800e8 <.SwitchReturn+0x28>
   8000c:	58000722 	ldr	x2, 800f0 <.SwitchReturn+0x30>
   80010:	eb020021 	subs	x1, x1, x2
   80014:	9b007c22 	mul	x2, x1, x0
   80018:	58000701 	ldr	x1, 800f8 <.SwitchReturn+0x38>
   8001c:	cb22603f 	sub	sp, x1, x2
   80020:	b5000120 	cbnz	x0, 80044 <.bss_done>
   80024:	580006e0 	ldr	x0, 80100 <.SwitchReturn+0x40>
   80028:	58000702 	ldr	x2, 80108 <.SwitchReturn+0x48>
   8002c:	cb000042 	sub	x2, x2, x0
   80030:	d344fc42 	lsr	x2, x2, #4
   80034:	b4000082 	cbz	x2, 80044 <.bss_done>

0000000000080038 <.bss_zero_loop>:
   80038:	a8817c1f 	stp	xzr, xzr, [x0], #16
   8003c:	d1000442 	sub	x2, x2, #0x1
   80040:	b5ffffc2 	cbnz	x2, 80038 <.bss_zero_loop>

0000000000080044 <.bss_done>:
   80044:	9400000b 	bl	80070 <__switch_el2_to_el1>
   80048:	1008fdc0 	adr	x0, 92000 <__ExceptionVectorTable>
   8004c:	d518c000 	msr	vbar_el1, x0
   80050:	d5381041 	mrs	x1, cpacr_el1
   80054:	d2a00600 	mov	x0, #0x300000              	// #3145728
   80058:	aa000020 	orr	x0, x1, x0
   8005c:	d5181040 	msr	cpacr_el1, x0
   80060:	d53800a0 	mrs	x0, mpidr_el1
   80064:	92400400 	and	x0, x0, #0x3
   80068:	14004f62 	b	93df0 <__rust_entry>
   8006c:	14004413 	b	910b8 <__hang>

0000000000080070 <__switch_el2_to_el1>:
   80070:	d5384240 	mrs	x0, currentel
   80074:	f100101f 	cmp	x0, #0x4
   80078:	54000240 	b.eq	800c0 <.SwitchReturn>  // b.none
   8007c:	d518101f 	msr	sctlr_el1, xzr
   80080:	d2b00000 	mov	x0, #0x80000000            	// #2147483648
   80084:	b27f0000 	orr	x0, x0, #0x2
   80088:	d51c1100 	msr	hcr_el2, x0
   8008c:	d53c1100 	mrs	x0, hcr_el2
   80090:	d53ce102 	mrs	x2, cnthctl_el2
   80094:	b2400442 	orr	x2, x2, #0x3
   80098:	d51ce102 	msr	cnthctl_el2, x2
   8009c:	d51ce07f 	msr	cntvoff_el2, xzr
   800a0:	d28078a2 	mov	x2, #0x3c5                 	// #965
   800a4:	d51c4002 	msr	spsr_el2, x2
   800a8:	d53c1100 	mrs	x0, hcr_el2
   800ac:	927af000 	and	x0, x0, #0xffffffffffffffc7
   800b0:	d51c1100 	msr	hcr_el2, x0
   800b4:	10000061 	adr	x1, 800c0 <.SwitchReturn>
   800b8:	d51c4021 	msr	elr_el2, x1
   800bc:	d69f03e0 	eret

00000000000800c0 <.SwitchReturn>:
   800c0:	58000281 	ldr	x1, 80110 <.SwitchReturn+0x50>
   800c4:	d53800a0 	mrs	x0, mpidr_el1
   800c8:	92400400 	and	x0, x0, #0x3
   800cc:	580000e2 	ldr	x2, 800e8 <.SwitchReturn+0x28>
   800d0:	58000103 	ldr	x3, 800f0 <.SwitchReturn+0x30>
   800d4:	eb030042 	subs	x2, x2, x3
   800d8:	9b007c42 	mul	x2, x2, x0
   800dc:	cb020020 	sub	x0, x1, x2
   800e0:	9100001f 	mov	sp, x0
   800e4:	d65f03c0 	ret
   800e8:	000e0f80 	.inst	0x000e0f80 ; undefined
   800ec:	00000000 	.inst	0x00000000 ; undefined
   800f0:	000d0f80 	.inst	0x000d0f80 ; undefined
   800f4:	00000000 	.inst	0x00000000 ; undefined
   800f8:	000d1f80 	.inst	0x000d1f80 ; undefined
   800fc:	00000000 	.inst	0x00000000 ; undefined
   80100:	00098000 	.inst	0x00098000 ; undefined
   80104:	00000000 	.inst	0x00000000 ; undefined
   80108:	0009f199 	.inst	0x0009f199 ; undefined
   8010c:	00000000 	.inst	0x00000000 ; undefined
   80110:	000dff80 	.inst	0x000dff80 ; undefined
   80114:	00000000 	.inst	0x00000000 ; undefined

0000000000080118 <_ZN5alloc11collections5btree4node210Handle$LT$alloc..collections..btree..node..NodeRef$LT$alloc..collections..btree..node..marker..Mut$C$K$C$V$C$alloc..collections..btree..node..marker..Leaf$GT$$C$alloc..collections..btree..node..marker..Edge$GT$16insert_recursing17hfa24779eebf0385cE>:
   80118:	a9ba7bfd 	stp	x29, x30, [sp, #-96]!
   8011c:	a9016ffc 	stp	x28, x27, [sp, #16]
   80120:	a90267fa 	stp	x26, x25, [sp, #32]
   80124:	a9035ff8 	stp	x24, x23, [sp, #48]
   80128:	a90457f6 	stp	x22, x21, [sp, #64]
   8012c:	a9054ff4 	stp	x20, x19, [sp, #80]
   80130:	d10743ff 	sub	sp, sp, #0x1d0
   80134:	a9405819 	ldp	x25, x22, [x0]
   80138:	aa0303f8 	mov	x24, x3
   8013c:	aa0203fb 	mov	x27, x2
   80140:	f9400814 	ldr	x20, [x0, #16]
   80144:	aa0103fa 	mov	x26, x1
   80148:	aa0803f5 	mov	x21, x8
   8014c:	794226c9 	ldrh	w9, [x22, #274]
   80150:	f1002d3f 	cmp	x9, #0xb
   80154:	540003a2 	b.cs	801c8 <_ZN5alloc11collections5btree4node210Handle$LT$alloc..collections..btree..node..NodeRef$LT$alloc..collections..btree..node..marker..Mut$C$K$C$V$C$alloc..collections..btree..node..marker..Leaf$GT$$C$alloc..collections..btree..node..marker..Edge$GT$16insert_recursing17hfa24779eebf0385cE+0xb0>  // b.hs, b.nlast
   80158:	91000528 	add	x8, x9, #0x1
   8015c:	910022d7 	add	x23, x22, #0x8
   80160:	91000693 	add	x19, x20, #0x1
   80164:	eb08027f 	cmp	x19, x8
   80168:	790226c8 	strh	w8, [x22, #274]
   8016c:	540000e2 	b.cs	80188 <_ZN5alloc11collections5btree4node210Handle$LT$alloc..collections..btree..node..NodeRef$LT$alloc..collections..btree..node..marker..Mut$C$K$C$V$C$alloc..collections..btree..node..marker..Leaf$GT$$C$alloc..collections..btree..node..marker..Edge$GT$16insert_recursing17hfa24779eebf0385cE+0x70>  // b.hs, b.nlast
   80170:	aa3403e9 	mvn	x9, x20
   80174:	8b140ee1 	add	x1, x23, x20, lsl #3
   80178:	8b130ee0 	add	x0, x23, x19, lsl #3
   8017c:	8b080128 	add	x8, x9, x8
   80180:	d37df102 	lsl	x2, x8, #3
   80184:	940025f1 	bl	89948 <memmove>
   80188:	f8347afa 	str	x26, [x23, x20, lsl #3]
   8018c:	910182d7 	add	x23, x22, #0x60
   80190:	794226c8 	ldrh	w8, [x22, #274]
   80194:	eb08027f 	cmp	x19, x8
   80198:	540000e2 	b.cs	801b4 <_ZN5alloc11collections5btree4node210Handle$LT$alloc..collections..btree..node..NodeRef$LT$alloc..collections..btree..node..marker..Mut$C$K$C$V$C$alloc..collections..btree..node..marker..Leaf$GT$$C$alloc..collections..btree..node..marker..Edge$GT$16insert_recursing17hfa24779eebf0385cE+0x9c>  // b.hs, b.nlast
   8019c:	aa3403e9 	mvn	x9, x20
   801a0:	8b1412e1 	add	x1, x23, x20, lsl #4
   801a4:	8b1312e0 	add	x0, x23, x19, lsl #4
   801a8:	8b080128 	add	x8, x9, x8
   801ac:	d37ced02 	lsl	x2, x8, #4
   801b0:	940025e6 	bl	89948 <memmove>
   801b4:	8b1412ea 	add	x10, x23, x20, lsl #4
   801b8:	a90066bf 	stp	xzr, x25, [x21]
   801bc:	a900615b 	stp	x27, x24, [x10]
   801c0:	a90152b6 	stp	x22, x20, [x21, #16]
   801c4:	14000125 	b	80658 <_ZN5alloc11collections5btree4node210Handle$LT$alloc..collections..btree..node..NodeRef$LT$alloc..collections..btree..node..marker..Mut$C$K$C$V$C$alloc..collections..btree..node..marker..Leaf$GT$$C$alloc..collections..btree..node..marker..Edge$GT$16insert_recursing17hfa24779eebf0385cE+0x540>
   801c8:	910183e8 	add	x8, sp, #0x60
   801cc:	aa1403e0 	mov	x0, x20
   801d0:	a903e3fb 	stp	x27, x24, [sp, #56]
   801d4:	f9000ff5 	str	x21, [sp, #24]
   801d8:	940032c2 	bl	8cce0 <_ZN5alloc11collections5btree4node10splitpoint17hc3ccd3cac0e87691E>
   801dc:	a9465ff3 	ldp	x19, x23, [sp, #96]
   801e0:	52802300 	mov	w0, #0x118                 	// #280
   801e4:	52800101 	mov	w1, #0x8                   	// #8
   801e8:	f9403bfc 	ldr	x28, [sp, #112]
   801ec:	94000c6b 	bl	83398 <__rust_alloc>
   801f0:	b40025c0 	cbz	x0, 806a8 <_ZN5alloc11collections5btree4node210Handle$LT$alloc..collections..btree..node..NodeRef$LT$alloc..collections..btree..node..marker..Mut$C$K$C$V$C$alloc..collections..btree..node..marker..Leaf$GT$$C$alloc..collections..btree..node..marker..Edge$GT$16insert_recursing17hfa24779eebf0385cE+0x590>
   801f4:	91002018 	add	x24, x0, #0x8
   801f8:	aa0003f4 	mov	x20, x0
   801fc:	f900001f 	str	xzr, [x0]
   80200:	52802142 	mov	w2, #0x10a                 	// #266
   80204:	910183e1 	add	x1, sp, #0x60
   80208:	aa1803e0 	mov	x0, x24
   8020c:	94002523 	bl	89698 <memcpy>
   80210:	7902269f 	strh	wzr, [x20, #274]
   80214:	aa3303e9 	mvn	x9, x19
   80218:	794226c8 	ldrh	w8, [x22, #274]
   8021c:	910182d5 	add	x21, x22, #0x60
   80220:	9100067b 	add	x27, x19, #0x1
   80224:	aa1803e0 	mov	x0, x24
   80228:	8b09011d 	add	x29, x8, x9
   8022c:	910022c8 	add	x8, x22, #0x8
   80230:	8b1312a9 	add	x9, x21, x19, lsl #4
   80234:	8b1b0d01 	add	x1, x8, x27, lsl #3
   80238:	d37df3a2 	lsl	x2, x29, #3
   8023c:	7902269d 	strh	w29, [x20, #274]
   80240:	f873790b 	ldr	x11, [x8, x19, lsl #3]
   80244:	f940012a 	ldr	x10, [x9]
   80248:	a9052fea 	stp	x10, x11, [sp, #80]
   8024c:	f9400529 	ldr	x9, [x9, #8]
   80250:	f90027e9 	str	x9, [sp, #72]
   80254:	94002511 	bl	89698 <memcpy>
   80258:	8b1b12a1 	add	x1, x21, x27, lsl #4
   8025c:	91018280 	add	x0, x20, #0x60
   80260:	d37cefa2 	lsl	x2, x29, #4
   80264:	9400250d 	bl	89698 <memcpy>
   80268:	f10002ff 	cmp	x23, #0x0
   8026c:	790226d3 	strh	w19, [x22, #274]
   80270:	9a961297 	csel	x23, x20, x22, ne  // ne = any
   80274:	91000793 	add	x19, x28, #0x1
   80278:	910022f8 	add	x24, x23, #0x8
   8027c:	794226e8 	ldrh	w8, [x23, #274]
   80280:	11000509 	add	w9, w8, #0x1
   80284:	92403d28 	and	x8, x9, #0xffff
   80288:	eb08027f 	cmp	x19, x8
   8028c:	790226e9 	strh	w9, [x23, #274]
   80290:	540000e2 	b.cs	802ac <_ZN5alloc11collections5btree4node210Handle$LT$alloc..collections..btree..node..NodeRef$LT$alloc..collections..btree..node..marker..Mut$C$K$C$V$C$alloc..collections..btree..node..marker..Leaf$GT$$C$alloc..collections..btree..node..marker..Edge$GT$16insert_recursing17hfa24779eebf0385cE+0x194>  // b.hs, b.nlast
   80294:	aa3c03e9 	mvn	x9, x28
   80298:	8b1c0f01 	add	x1, x24, x28, lsl #3
   8029c:	8b130f00 	add	x0, x24, x19, lsl #3
   802a0:	8b080128 	add	x8, x9, x8
   802a4:	d37df102 	lsl	x2, x8, #3
   802a8:	940025a8 	bl	89948 <memmove>
   802ac:	f83c7b1a 	str	x26, [x24, x28, lsl #3]
   802b0:	794226e8 	ldrh	w8, [x23, #274]
   802b4:	910182f7 	add	x23, x23, #0x60
   802b8:	f9401ff5 	ldr	x21, [sp, #56]
   802bc:	eb08027f 	cmp	x19, x8
   802c0:	540000e2 	b.cs	802dc <_ZN5alloc11collections5btree4node210Handle$LT$alloc..collections..btree..node..NodeRef$LT$alloc..collections..btree..node..marker..Mut$C$K$C$V$C$alloc..collections..btree..node..marker..Leaf$GT$$C$alloc..collections..btree..node..marker..Edge$GT$16insert_recursing17hfa24779eebf0385cE+0x1c4>  // b.hs, b.nlast
   802c4:	aa3c03e9 	mvn	x9, x28
   802c8:	8b1c12e1 	add	x1, x23, x28, lsl #4
   802cc:	8b1312e0 	add	x0, x23, x19, lsl #4
   802d0:	8b080128 	add	x8, x9, x8
   802d4:	d37ced02 	lsl	x2, x8, #4
   802d8:	9400259c 	bl	89948 <memmove>
   802dc:	f94023e8 	ldr	x8, [sp, #64]
   802e0:	8b1c12ea 	add	x10, x23, x28, lsl #4
   802e4:	a9002155 	stp	x21, x8, [x10]
   802e8:	f94002c8 	ldr	x8, [x22]
   802ec:	b4001308 	cbz	x8, 8054c <_ZN5alloc11collections5btree4node210Handle$LT$alloc..collections..btree..node..NodeRef$LT$alloc..collections..btree..node..marker..Mut$C$K$C$V$C$alloc..collections..btree..node..marker..Leaf$GT$$C$alloc..collections..btree..node..marker..Edge$GT$16insert_recursing17hfa24779eebf0385cE+0x434>
   802f0:	a9452fec 	ldp	x12, x11, [sp, #80]
   802f4:	aa1f03e9 	mov	x9, xzr
   802f8:	f94027ed 	ldr	x13, [sp, #72]
   802fc:	f9000bea 	str	x10, [sp, #16]
   80300:	14000007 	b	8031c <_ZN5alloc11collections5btree4node210Handle$LT$alloc..collections..btree..node..NodeRef$LT$alloc..collections..btree..node..marker..Mut$C$K$C$V$C$alloc..collections..btree..node..marker..Leaf$GT$$C$alloc..collections..btree..node..marker..Edge$GT$16insert_recursing17hfa24779eebf0385cE+0x204>
   80304:	f9400368 	ldr	x8, [x27]
   80308:	aa1b03f6 	mov	x22, x27
   8030c:	a9452fec 	ldp	x12, x11, [sp, #80]
   80310:	aa1903e9 	mov	x9, x25
   80314:	f94027ed 	ldr	x13, [sp, #72]
   80318:	b40018e8 	cbz	x8, 80634 <_ZN5alloc11collections5btree4node210Handle$LT$alloc..collections..btree..node..NodeRef$LT$alloc..collections..btree..node..marker..Mut$C$K$C$V$C$alloc..collections..btree..node..marker..Leaf$GT$$C$alloc..collections..btree..node..marker..Edge$GT$16insert_recursing17hfa24779eebf0385cE+0x51c>
   8031c:	eb09033f 	cmp	x25, x9
   80320:	54001ae1 	b.ne	8067c <_ZN5alloc11collections5btree4node210Handle$LT$alloc..collections..btree..node..NodeRef$LT$alloc..collections..btree..node..marker..Mut$C$K$C$V$C$alloc..collections..btree..node..marker..Leaf$GT$$C$alloc..collections..btree..node..marker..Edge$GT$16insert_recursing17hfa24779eebf0385cE+0x564>  // b.any
   80324:	aa0803fb 	mov	x27, x8
   80328:	79422508 	ldrh	w8, [x8, #274]
   8032c:	aa1403f7 	mov	x23, x20
   80330:	794222d4 	ldrh	w20, [x22, #272]
   80334:	aa0d03f8 	mov	x24, x13
   80338:	aa0c03fa 	mov	x26, x12
   8033c:	aa0b03fc 	mov	x28, x11
   80340:	91000739 	add	x25, x25, #0x1
   80344:	f1002d1f 	cmp	x8, #0xb
   80348:	54001083 	b.cc	80558 <_ZN5alloc11collections5btree4node210Handle$LT$alloc..collections..btree..node..NodeRef$LT$alloc..collections..btree..node..marker..Mut$C$K$C$V$C$alloc..collections..btree..node..marker..Leaf$GT$$C$alloc..collections..btree..node..marker..Edge$GT$16insert_recursing17hfa24779eebf0385cE+0x440>  // b.lo, b.ul, b.last
   8034c:	910183e8 	add	x8, sp, #0x60
   80350:	aa1403e0 	mov	x0, x20
   80354:	a9026bfc 	stp	x28, x26, [sp, #32]
   80358:	a9035ff8 	stp	x24, x23, [sp, #48]
   8035c:	f90023f9 	str	x25, [sp, #64]
   80360:	94003260 	bl	8cce0 <_ZN5alloc11collections5btree4node10splitpoint17hc3ccd3cac0e87691E>
   80364:	a9465ff3 	ldp	x19, x23, [sp, #96]
   80368:	52802f00 	mov	w0, #0x178                 	// #376
   8036c:	52800101 	mov	w1, #0x8                   	// #8
   80370:	f9403bf6 	ldr	x22, [sp, #112]
   80374:	94000c09 	bl	83398 <__rust_alloc>
   80378:	b4001900 	cbz	x0, 80698 <_ZN5alloc11collections5btree4node210Handle$LT$alloc..collections..btree..node..NodeRef$LT$alloc..collections..btree..node..marker..Mut$C$K$C$V$C$alloc..collections..btree..node..marker..Leaf$GT$$C$alloc..collections..btree..node..marker..Edge$GT$16insert_recursing17hfa24779eebf0385cE+0x580>
   8037c:	91002018 	add	x24, x0, #0x8
   80380:	aa0003f4 	mov	x20, x0
   80384:	f900001f 	str	xzr, [x0]
   80388:	910183e1 	add	x1, sp, #0x60
   8038c:	aa1803e0 	mov	x0, x24
   80390:	52802142 	mov	w2, #0x10a                 	// #266
   80394:	940024c1 	bl	89698 <memcpy>
   80398:	91045280 	add	x0, x20, #0x114
   8039c:	9105b3e1 	add	x1, sp, #0x16c
   803a0:	52800c82 	mov	w2, #0x64                  	// #100
   803a4:	7902269f 	strh	wzr, [x20, #274]
   803a8:	940024bc 	bl	89698 <memcpy>
   803ac:	79422768 	ldrh	w8, [x27, #274]
   803b0:	9100067a 	add	x26, x19, #0x1
   803b4:	aa3303f9 	mvn	x25, x19
   803b8:	d37df35d 	lsl	x29, x26, #3
   803bc:	8b1d0369 	add	x9, x27, x29
   803c0:	91046280 	add	x0, x20, #0x118
   803c4:	91046121 	add	x1, x9, #0x118
   803c8:	8b190115 	add	x21, x8, x25
   803cc:	cb130108 	sub	x8, x8, x19
   803d0:	d37df102 	lsl	x2, x8, #3
   803d4:	940024b1 	bl	89698 <memcpy>
   803d8:	79422768 	ldrh	w8, [x27, #274]
   803dc:	9101837c 	add	x28, x27, #0x60
   803e0:	8b131389 	add	x9, x28, x19, lsl #4
   803e4:	aa1803e0 	mov	x0, x24
   803e8:	8b190119 	add	x25, x8, x25
   803ec:	91002368 	add	x8, x27, #0x8
   803f0:	8b1d0101 	add	x1, x8, x29
   803f4:	d37df322 	lsl	x2, x25, #3
   803f8:	79022699 	strh	w25, [x20, #274]
   803fc:	f873790b 	ldr	x11, [x8, x19, lsl #3]
   80400:	f940012a 	ldr	x10, [x9]
   80404:	a9052fea 	stp	x10, x11, [sp, #80]
   80408:	f9400529 	ldr	x9, [x9, #8]
   8040c:	f90027e9 	str	x9, [sp, #72]
   80410:	940024a2 	bl	89698 <memcpy>
   80414:	8b1a1381 	add	x1, x28, x26, lsl #4
   80418:	91018280 	add	x0, x20, #0x60
   8041c:	d37cef22 	lsl	x2, x25, #4
   80420:	9400249e 	bl	89698 <memcpy>
   80424:	aa1f03e8 	mov	x8, xzr
   80428:	79022773 	strh	w19, [x27, #274]
   8042c:	8b080e89 	add	x9, x20, x8, lsl #3
   80430:	eb15011f 	cmp	x8, x21
   80434:	f9408d2a 	ldr	x10, [x9, #280]
   80438:	9a882509 	cinc	x9, x8, cc  // cc = lo, ul, last
   8043c:	eb15013f 	cmp	x9, x21
   80440:	f9000154 	str	x20, [x10]
   80444:	79022148 	strh	w8, [x10, #272]
   80448:	54000088 	b.hi	80458 <_ZN5alloc11collections5btree4node210Handle$LT$alloc..collections..btree..node..NodeRef$LT$alloc..collections..btree..node..marker..Mut$C$K$C$V$C$alloc..collections..btree..node..marker..Leaf$GT$$C$alloc..collections..btree..node..marker..Edge$GT$16insert_recursing17hfa24779eebf0385cE+0x340>  // b.pmore
   8044c:	eb15011f 	cmp	x8, x21
   80450:	aa0903e8 	mov	x8, x9
   80454:	54fffec3 	b.cc	8042c <_ZN5alloc11collections5btree4node210Handle$LT$alloc..collections..btree..node..NodeRef$LT$alloc..collections..btree..node..marker..Mut$C$K$C$V$C$alloc..collections..btree..node..marker..Leaf$GT$$C$alloc..collections..btree..node..marker..Edge$GT$16insert_recursing17hfa24779eebf0385cE+0x314>  // b.lo, b.ul, b.last
   80458:	f10002ff 	cmp	x23, #0x0
   8045c:	910006d8 	add	x24, x22, #0x1
   80460:	9a9b1297 	csel	x23, x20, x27, ne  // ne = any
   80464:	910022f3 	add	x19, x23, #0x8
   80468:	794226e8 	ldrh	w8, [x23, #274]
   8046c:	11000509 	add	w9, w8, #0x1
   80470:	92403d28 	and	x8, x9, #0xffff
   80474:	eb08031f 	cmp	x24, x8
   80478:	790226e9 	strh	w9, [x23, #274]
   8047c:	a94257f9 	ldp	x25, x21, [sp, #32]
   80480:	540000e2 	b.cs	8049c <_ZN5alloc11collections5btree4node210Handle$LT$alloc..collections..btree..node..NodeRef$LT$alloc..collections..btree..node..marker..Mut$C$K$C$V$C$alloc..collections..btree..node..marker..Leaf$GT$$C$alloc..collections..btree..node..marker..Edge$GT$16insert_recursing17hfa24779eebf0385cE+0x384>  // b.hs, b.nlast
   80484:	aa3603e9 	mvn	x9, x22
   80488:	8b160e61 	add	x1, x19, x22, lsl #3
   8048c:	8b180e60 	add	x0, x19, x24, lsl #3
   80490:	8b080128 	add	x8, x9, x8
   80494:	d37df102 	lsl	x2, x8, #3
   80498:	9400252c 	bl	89948 <memmove>
   8049c:	f8367a79 	str	x25, [x19, x22, lsl #3]
   804a0:	910182f3 	add	x19, x23, #0x60
   804a4:	794226e8 	ldrh	w8, [x23, #274]
   804a8:	f94023f9 	ldr	x25, [sp, #64]
   804ac:	eb08031f 	cmp	x24, x8
   804b0:	540000e2 	b.cs	804cc <_ZN5alloc11collections5btree4node210Handle$LT$alloc..collections..btree..node..NodeRef$LT$alloc..collections..btree..node..marker..Mut$C$K$C$V$C$alloc..collections..btree..node..marker..Leaf$GT$$C$alloc..collections..btree..node..marker..Edge$GT$16insert_recursing17hfa24779eebf0385cE+0x3b4>  // b.hs, b.nlast
   804b4:	aa3603e9 	mvn	x9, x22
   804b8:	8b161261 	add	x1, x19, x22, lsl #4
   804bc:	8b181260 	add	x0, x19, x24, lsl #4
   804c0:	8b080128 	add	x8, x9, x8
   804c4:	d37ced02 	lsl	x2, x8, #4
   804c8:	94002520 	bl	89948 <memmove>
   804cc:	f9401be9 	ldr	x9, [sp, #48]
   804d0:	8b161268 	add	x8, x19, x22, lsl #4
   804d4:	910462f3 	add	x19, x23, #0x118
   804d8:	a9002515 	stp	x21, x9, [x8]
   804dc:	91000ac9 	add	x9, x22, #0x2
   804e0:	794226e8 	ldrh	w8, [x23, #274]
   804e4:	eb08013f 	cmp	x9, x8
   804e8:	54000108 	b.hi	80508 <_ZN5alloc11collections5btree4node210Handle$LT$alloc..collections..btree..node..NodeRef$LT$alloc..collections..btree..node..marker..Mut$C$K$C$V$C$alloc..collections..btree..node..marker..Leaf$GT$$C$alloc..collections..btree..node..marker..Edge$GT$16insert_recursing17hfa24779eebf0385cE+0x3f0>  // b.pmore
   804ec:	aa3803ea 	mvn	x10, x24
   804f0:	8b180e61 	add	x1, x19, x24, lsl #3
   804f4:	8b080148 	add	x8, x10, x8
   804f8:	8b090e60 	add	x0, x19, x9, lsl #3
   804fc:	d37df108 	lsl	x8, x8, #3
   80500:	91002102 	add	x2, x8, #0x8
   80504:	94002511 	bl	89948 <memmove>
   80508:	f9401fe8 	ldr	x8, [sp, #56]
   8050c:	f8387a68 	str	x8, [x19, x24, lsl #3]
   80510:	794226e8 	ldrh	w8, [x23, #274]
   80514:	eb08031f 	cmp	x24, x8
   80518:	54ffef68 	b.hi	80304 <_ZN5alloc11collections5btree4node210Handle$LT$alloc..collections..btree..node..NodeRef$LT$alloc..collections..btree..node..marker..Mut$C$K$C$V$C$alloc..collections..btree..node..marker..Leaf$GT$$C$alloc..collections..btree..node..marker..Edge$GT$16insert_recursing17hfa24779eebf0385cE+0x1ec>  // b.pmore
   8051c:	8b180ee9 	add	x9, x23, x24, lsl #3
   80520:	eb08031f 	cmp	x24, x8
   80524:	f9408d2a 	ldr	x10, [x9, #280]
   80528:	9a982709 	cinc	x9, x24, cc  // cc = lo, ul, last
   8052c:	eb08013f 	cmp	x9, x8
   80530:	f9000157 	str	x23, [x10]
   80534:	79022158 	strh	w24, [x10, #272]
   80538:	54ffee68 	b.hi	80304 <_ZN5alloc11collections5btree4node210Handle$LT$alloc..collections..btree..node..NodeRef$LT$alloc..collections..btree..node..marker..Mut$C$K$C$V$C$alloc..collections..btree..node..marker..Leaf$GT$$C$alloc..collections..btree..node..marker..Edge$GT$16insert_recursing17hfa24779eebf0385cE+0x1ec>  // b.pmore
   8053c:	eb08031f 	cmp	x24, x8
   80540:	aa0903f8 	mov	x24, x9
   80544:	54fffec3 	b.cc	8051c <_ZN5alloc11collections5btree4node210Handle$LT$alloc..collections..btree..node..NodeRef$LT$alloc..collections..btree..node..marker..Mut$C$K$C$V$C$alloc..collections..btree..node..marker..Leaf$GT$$C$alloc..collections..btree..node..marker..Edge$GT$16insert_recursing17hfa24779eebf0385cE+0x404>  // b.lo, b.ul, b.last
   80548:	17ffff6f 	b	80304 <_ZN5alloc11collections5btree4node210Handle$LT$alloc..collections..btree..node..NodeRef$LT$alloc..collections..btree..node..marker..Mut$C$K$C$V$C$alloc..collections..btree..node..marker..Leaf$GT$$C$alloc..collections..btree..node..marker..Edge$GT$16insert_recursing17hfa24779eebf0385cE+0x1ec>
   8054c:	a9452fec 	ldp	x12, x11, [sp, #80]
   80550:	f94027ed 	ldr	x13, [sp, #72]
   80554:	1400003b 	b	80640 <_ZN5alloc11collections5btree4node210Handle$LT$alloc..collections..btree..node..NodeRef$LT$alloc..collections..btree..node..marker..Mut$C$K$C$V$C$alloc..collections..btree..node..marker..Leaf$GT$$C$alloc..collections..btree..node..marker..Edge$GT$16insert_recursing17hfa24779eebf0385cE+0x528>
   80558:	91000508 	add	x8, x8, #0x1
   8055c:	91002375 	add	x21, x27, #0x8
   80560:	91000693 	add	x19, x20, #0x1
   80564:	eb08027f 	cmp	x19, x8
   80568:	79022768 	strh	w8, [x27, #274]
   8056c:	540000e2 	b.cs	80588 <_ZN5alloc11collections5btree4node210Handle$LT$alloc..collections..btree..node..NodeRef$LT$alloc..collections..btree..node..marker..Mut$C$K$C$V$C$alloc..collections..btree..node..marker..Leaf$GT$$C$alloc..collections..btree..node..marker..Edge$GT$16insert_recursing17hfa24779eebf0385cE+0x470>  // b.hs, b.nlast
   80570:	aa3403e9 	mvn	x9, x20
   80574:	8b140ea1 	add	x1, x21, x20, lsl #3
   80578:	8b130ea0 	add	x0, x21, x19, lsl #3
   8057c:	8b080128 	add	x8, x9, x8
   80580:	d37df102 	lsl	x2, x8, #3
   80584:	940024f1 	bl	89948 <memmove>
   80588:	f8347abc 	str	x28, [x21, x20, lsl #3]
   8058c:	91018375 	add	x21, x27, #0x60
   80590:	79422768 	ldrh	w8, [x27, #274]
   80594:	eb08027f 	cmp	x19, x8
   80598:	540000e2 	b.cs	805b4 <_ZN5alloc11collections5btree4node210Handle$LT$alloc..collections..btree..node..NodeRef$LT$alloc..collections..btree..node..marker..Mut$C$K$C$V$C$alloc..collections..btree..node..marker..Leaf$GT$$C$alloc..collections..btree..node..marker..Edge$GT$16insert_recursing17hfa24779eebf0385cE+0x49c>  // b.hs, b.nlast
   8059c:	aa3403e9 	mvn	x9, x20
   805a0:	8b1412a1 	add	x1, x21, x20, lsl #4
   805a4:	8b1312a0 	add	x0, x21, x19, lsl #4
   805a8:	8b080128 	add	x8, x9, x8
   805ac:	d37ced02 	lsl	x2, x8, #4
   805b0:	940024e6 	bl	89948 <memmove>
   805b4:	8b1412a8 	add	x8, x21, x20, lsl #4
   805b8:	91046375 	add	x21, x27, #0x118
   805bc:	91000a89 	add	x9, x20, #0x2
   805c0:	a900611a 	stp	x26, x24, [x8]
   805c4:	79422768 	ldrh	w8, [x27, #274]
   805c8:	eb08013f 	cmp	x9, x8
   805cc:	540000e8 	b.hi	805e8 <_ZN5alloc11collections5btree4node210Handle$LT$alloc..collections..btree..node..NodeRef$LT$alloc..collections..btree..node..marker..Mut$C$K$C$V$C$alloc..collections..btree..node..marker..Leaf$GT$$C$alloc..collections..btree..node..marker..Edge$GT$16insert_recursing17hfa24779eebf0385cE+0x4d0>  // b.pmore
   805d0:	aa3403ea 	mvn	x10, x20
   805d4:	8b130ea1 	add	x1, x21, x19, lsl #3
   805d8:	8b090ea0 	add	x0, x21, x9, lsl #3
   805dc:	8b080148 	add	x8, x10, x8
   805e0:	d37df102 	lsl	x2, x8, #3
   805e4:	940024d9 	bl	89948 <memmove>
   805e8:	f8337ab7 	str	x23, [x21, x19, lsl #3]
   805ec:	79422768 	ldrh	w8, [x27, #274]
   805f0:	6b08029f 	cmp	w20, w8
   805f4:	54000182 	b.cs	80624 <_ZN5alloc11collections5btree4node210Handle$LT$alloc..collections..btree..node..NodeRef$LT$alloc..collections..btree..node..marker..Mut$C$K$C$V$C$alloc..collections..btree..node..marker..Leaf$GT$$C$alloc..collections..btree..node..marker..Edge$GT$16insert_recursing17hfa24779eebf0385cE+0x50c>  // b.hs, b.nlast
   805f8:	8b130f69 	add	x9, x27, x19, lsl #3
   805fc:	eb08027f 	cmp	x19, x8
   80600:	f9408d2a 	ldr	x10, [x9, #280]
   80604:	9a932669 	cinc	x9, x19, cc  // cc = lo, ul, last
   80608:	eb08013f 	cmp	x9, x8
   8060c:	f900015b 	str	x27, [x10]
   80610:	79022153 	strh	w19, [x10, #272]
   80614:	54000088 	b.hi	80624 <_ZN5alloc11collections5btree4node210Handle$LT$alloc..collections..btree..node..NodeRef$LT$alloc..collections..btree..node..marker..Mut$C$K$C$V$C$alloc..collections..btree..node..marker..Leaf$GT$$C$alloc..collections..btree..node..marker..Edge$GT$16insert_recursing17hfa24779eebf0385cE+0x50c>  // b.pmore
   80618:	eb08027f 	cmp	x19, x8
   8061c:	aa0903f3 	mov	x19, x9
   80620:	54fffec3 	b.cc	805f8 <_ZN5alloc11collections5btree4node210Handle$LT$alloc..collections..btree..node..NodeRef$LT$alloc..collections..btree..node..marker..Mut$C$K$C$V$C$alloc..collections..btree..node..marker..Leaf$GT$$C$alloc..collections..btree..node..marker..Edge$GT$16insert_recursing17hfa24779eebf0385cE+0x4e0>  // b.lo, b.ul, b.last
   80624:	a94157ea 	ldp	x10, x21, [sp, #16]
   80628:	a90066bf 	stp	xzr, x25, [x21]
   8062c:	a90152bb 	stp	x27, x20, [x21, #16]
   80630:	1400000a 	b	80658 <_ZN5alloc11collections5btree4node210Handle$LT$alloc..collections..btree..node..NodeRef$LT$alloc..collections..btree..node..marker..Mut$C$K$C$V$C$alloc..collections..btree..node..marker..Leaf$GT$$C$alloc..collections..btree..node..marker..Edge$GT$16insert_recursing17hfa24779eebf0385cE+0x540>
   80634:	f9400bea 	ldr	x10, [sp, #16]
   80638:	aa1903e8 	mov	x8, x25
   8063c:	aa1b03f6 	mov	x22, x27
   80640:	f9400ff5 	ldr	x21, [sp, #24]
   80644:	52800029 	mov	w9, #0x1                   	// #1
   80648:	a9012eb6 	stp	x22, x11, [x21, #16]
   8064c:	a90066a9 	stp	x9, x25, [x21]
   80650:	a90236ac 	stp	x12, x13, [x21, #32]
   80654:	a90352a8 	stp	x8, x20, [x21, #48]
   80658:	f90022aa 	str	x10, [x21, #64]
   8065c:	910743ff 	add	sp, sp, #0x1d0
   80660:	a9454ff4 	ldp	x20, x19, [sp, #80]
   80664:	a94457f6 	ldp	x22, x21, [sp, #64]
   80668:	a9435ff8 	ldp	x24, x23, [sp, #48]
   8066c:	a94267fa 	ldp	x26, x25, [sp, #32]
   80670:	a9416ffc 	ldp	x28, x27, [sp, #16]
   80674:	a8c67bfd 	ldp	x29, x30, [sp], #96
   80678:	d65f03c0 	ret
   8067c:	f0000080 	adrp	x0, 93000 <_ZN17ruspiro_interrupt17interrupt_handler17hba3161a75e7834cbE+0x208>
   80680:	f00000e2 	adrp	x2, 9f000 <_ZN17ruspiro_allocator6memory10HEAP_START17h21640eff129da783E.llvm.11358094369807046016>
   80684:	913fc400 	add	x0, x0, #0xff1
   80688:	528006a1 	mov	w1, #0x35                  	// #53
   8068c:	910a0042 	add	x2, x2, #0x280
   80690:	94003d10 	bl	8fad0 <_ZN4core9panicking5panic17h546310d45640065bE>
   80694:	d4200020 	brk	#0x1
   80698:	52802f00 	mov	w0, #0x178                 	// #376
   8069c:	52800101 	mov	w1, #0x8                   	// #8
   806a0:	9400318e 	bl	8ccd8 <_ZN5alloc5alloc18handle_alloc_error17h4609a7d668d8bcf9E>
   806a4:	d4200020 	brk	#0x1
   806a8:	52802300 	mov	w0, #0x118                 	// #280
   806ac:	52800101 	mov	w1, #0x8                   	// #8
   806b0:	9400318a 	bl	8ccd8 <_ZN5alloc5alloc18handle_alloc_error17h4609a7d668d8bcf9E>
   806b4:	d4200020 	brk	#0x1

00000000000806b8 <_ZN5alloc11collections5btree4node29BalancingContext$LT$K$C$V$GT$10steal_left17h4e06ea9b49b55a93E>:
   806b8:	d10243ff 	sub	sp, sp, #0x90
   806bc:	a941a02a 	ldp	x10, x8, [x1, #24]
   806c0:	a90567fa 	stp	x26, x25, [sp, #80]
   806c4:	a9065ff8 	stp	x24, x23, [sp, #96]
   806c8:	a90757f6 	stp	x22, x21, [sp, #112]
   806cc:	aa0003f5 	mov	x21, x0
   806d0:	a9084ff4 	stp	x20, x19, [sp, #128]
   806d4:	aa0203f3 	mov	x19, x2
   806d8:	7942250b 	ldrh	w11, [x8, #274]
   806dc:	aa0103f4 	mov	x20, x1
   806e0:	8b0b110c 	add	x12, x8, x11, lsl #4
   806e4:	f86b7909 	ldr	x9, [x8, x11, lsl #3]
   806e8:	f9402d8d 	ldr	x13, [x12, #88]
   806ec:	a903fbed 	stp	x13, x30, [sp, #56]
   806f0:	f940298c 	ldr	x12, [x12, #80]
   806f4:	f9001bec 	str	x12, [sp, #48]
   806f8:	3dc00fe0 	ldr	q0, [sp, #48]
   806fc:	b40000ea 	cbz	x10, 80718 <_ZN5alloc11collections5btree4node29BalancingContext$LT$K$C$V$GT$10steal_left17h4e06ea9b49b55a93E+0x60>
   80700:	8b0b0d0b 	add	x11, x8, x11, lsl #3
   80704:	d100054a 	sub	x10, x10, #0x1
   80708:	f9408d79 	ldr	x25, [x11, #280]
   8070c:	f900033f 	str	xzr, [x25]
   80710:	7942250b 	ldrh	w11, [x8, #274]
   80714:	14000002 	b	8071c <_ZN5alloc11collections5btree4node29BalancingContext$LT$K$C$V$GT$10steal_left17h4e06ea9b49b55a93E+0x64>
   80718:	aa1f03f9 	mov	x25, xzr
   8071c:	a940b68c 	ldp	x12, x13, [x20, #8]
   80720:	5100056b 	sub	w11, w11, #0x1
   80724:	8b0d0d8e 	add	x14, x12, x13, lsl #3
   80728:	7902250b 	strh	w11, [x8, #274]
   8072c:	8b0d118b 	add	x11, x12, x13, lsl #4
   80730:	f94005da 	ldr	x26, [x14, #8]
   80734:	f90005c9 	str	x9, [x14, #8]
   80738:	a9465d78 	ldp	x24, x23, [x11, #96]
   8073c:	3d800be0 	str	q0, [sp, #32]
   80740:	f94017e8 	ldr	x8, [sp, #40]
   80744:	f9003568 	str	x8, [x11, #104]
   80748:	f94013e9 	ldr	x9, [sp, #32]
   8074c:	a942da88 	ldp	x8, x22, [x20, #40]
   80750:	f9003169 	str	x9, [x11, #96]
   80754:	b4000368 	cbz	x8, 807c0 <_ZN5alloc11collections5btree4node29BalancingContext$LT$K$C$V$GT$10steal_left17h4e06ea9b49b55a93E+0x108>
   80758:	b4000b99 	cbz	x25, 808c8 <_ZN5alloc11collections5btree4node29BalancingContext$LT$K$C$V$GT$10steal_left17h4e06ea9b49b55a93E+0x210>
   8075c:	d1000508 	sub	x8, x8, #0x1
   80760:	eb0a011f 	cmp	x8, x10
   80764:	54000c01 	b.ne	808e4 <_ZN5alloc11collections5btree4node29BalancingContext$LT$K$C$V$GT$10steal_left17h4e06ea9b49b55a93E+0x22c>  // b.any
   80768:	794226c8 	ldrh	w8, [x22, #274]
   8076c:	7100291f 	cmp	w8, #0xa
   80770:	54000c88 	b.hi	80900 <_ZN5alloc11collections5btree4node29BalancingContext$LT$K$C$V$GT$10steal_left17h4e06ea9b49b55a93E+0x248>  // b.pmore
   80774:	11000509 	add	w9, w8, #0x1
   80778:	790226c9 	strh	w9, [x22, #274]
   8077c:	340004e8 	cbz	w8, 80818 <_ZN5alloc11collections5btree4node29BalancingContext$LT$K$C$V$GT$10steal_left17h4e06ea9b49b55a93E+0x160>
   80780:	92403d28 	and	x8, x9, #0xffff
   80784:	910022c1 	add	x1, x22, #0x8
   80788:	910042c0 	add	x0, x22, #0x10
   8078c:	d37df108 	lsl	x8, x8, #3
   80790:	d1002102 	sub	x2, x8, #0x8
   80794:	9400246d 	bl	89948 <memmove>
   80798:	794226c8 	ldrh	w8, [x22, #274]
   8079c:	f90006da 	str	x26, [x22, #8]
   807a0:	f100091f 	cmp	x8, #0x2
   807a4:	540003e3 	b.cc	80820 <_ZN5alloc11collections5btree4node29BalancingContext$LT$K$C$V$GT$10steal_left17h4e06ea9b49b55a93E+0x168>  // b.lo, b.ul, b.last
   807a8:	910182c1 	add	x1, x22, #0x60
   807ac:	9101c2c0 	add	x0, x22, #0x70
   807b0:	d37ced08 	lsl	x8, x8, #4
   807b4:	d1004102 	sub	x2, x8, #0x10
   807b8:	94002464 	bl	89948 <memmove>
   807bc:	14000018 	b	8081c <_ZN5alloc11collections5btree4node29BalancingContext$LT$K$C$V$GT$10steal_left17h4e06ea9b49b55a93E+0x164>
   807c0:	794226c8 	ldrh	w8, [x22, #274]
   807c4:	7100291f 	cmp	w8, #0xa
   807c8:	54000aa8 	b.hi	8091c <_ZN5alloc11collections5btree4node29BalancingContext$LT$K$C$V$GT$10steal_left17h4e06ea9b49b55a93E+0x264>  // b.pmore
   807cc:	11000509 	add	w9, w8, #0x1
   807d0:	790226c9 	strh	w9, [x22, #274]
   807d4:	34000508 	cbz	w8, 80874 <_ZN5alloc11collections5btree4node29BalancingContext$LT$K$C$V$GT$10steal_left17h4e06ea9b49b55a93E+0x1bc>
   807d8:	92403d28 	and	x8, x9, #0xffff
   807dc:	910022c1 	add	x1, x22, #0x8
   807e0:	910042c0 	add	x0, x22, #0x10
   807e4:	d37df108 	lsl	x8, x8, #3
   807e8:	d1002102 	sub	x2, x8, #0x8
   807ec:	94002457 	bl	89948 <memmove>
   807f0:	794226c8 	ldrh	w8, [x22, #274]
   807f4:	f90006da 	str	x26, [x22, #8]
   807f8:	f100091f 	cmp	x8, #0x2
   807fc:	540003e3 	b.cc	80878 <_ZN5alloc11collections5btree4node29BalancingContext$LT$K$C$V$GT$10steal_left17h4e06ea9b49b55a93E+0x1c0>  // b.lo, b.ul, b.last
   80800:	910182c1 	add	x1, x22, #0x60
   80804:	9101c2c0 	add	x0, x22, #0x70
   80808:	d37ced08 	lsl	x8, x8, #4
   8080c:	d1004102 	sub	x2, x8, #0x10
   80810:	9400244e 	bl	89948 <memmove>
   80814:	14000019 	b	80878 <_ZN5alloc11collections5btree4node29BalancingContext$LT$K$C$V$GT$10steal_left17h4e06ea9b49b55a93E+0x1c0>
   80818:	f90006da 	str	x26, [x22, #8]
   8081c:	794226c8 	ldrh	w8, [x22, #274]
   80820:	a9065ed8 	stp	x24, x23, [x22, #96]
   80824:	340000a8 	cbz	w8, 80838 <_ZN5alloc11collections5btree4node29BalancingContext$LT$K$C$V$GT$10steal_left17h4e06ea9b49b55a93E+0x180>
   80828:	910462c1 	add	x1, x22, #0x118
   8082c:	910482c0 	add	x0, x22, #0x120
   80830:	d37df102 	lsl	x2, x8, #3
   80834:	94002445 	bl	89948 <memmove>
   80838:	794226c8 	ldrh	w8, [x22, #274]
   8083c:	aa1f03e9 	mov	x9, xzr
   80840:	f9008ed9 	str	x25, [x22, #280]
   80844:	8b090eca 	add	x10, x22, x9, lsl #3
   80848:	eb08013f 	cmp	x9, x8
   8084c:	f9408d4b 	ldr	x11, [x10, #280]
   80850:	9a89252a 	cinc	x10, x9, cc  // cc = lo, ul, last
   80854:	eb08015f 	cmp	x10, x8
   80858:	f9000176 	str	x22, [x11]
   8085c:	79022169 	strh	w9, [x11, #272]
   80860:	540000e8 	b.hi	8087c <_ZN5alloc11collections5btree4node29BalancingContext$LT$K$C$V$GT$10steal_left17h4e06ea9b49b55a93E+0x1c4>  // b.pmore
   80864:	eb08013f 	cmp	x9, x8
   80868:	aa0a03e9 	mov	x9, x10
   8086c:	54fffec3 	b.cc	80844 <_ZN5alloc11collections5btree4node29BalancingContext$LT$K$C$V$GT$10steal_left17h4e06ea9b49b55a93E+0x18c>  // b.lo, b.ul, b.last
   80870:	14000003 	b	8087c <_ZN5alloc11collections5btree4node29BalancingContext$LT$K$C$V$GT$10steal_left17h4e06ea9b49b55a93E+0x1c4>
   80874:	f90006da 	str	x26, [x22, #8]
   80878:	a9065ed8 	stp	x24, x23, [x22, #96]
   8087c:	f9401a88 	ldr	x8, [x20, #48]
   80880:	91000669 	add	x9, x19, #0x1
   80884:	a9465ff8 	ldp	x24, x23, [sp, #96]
   80888:	a94567fa 	ldp	x26, x25, [sp, #80]
   8088c:	f90007e8 	str	x8, [sp, #8]
   80890:	f9401688 	ldr	x8, [x20, #40]
   80894:	a9484ff4 	ldp	x20, x19, [sp, #128]
   80898:	f94023fe 	ldr	x30, [sp, #64]
   8089c:	f90003e8 	str	x8, [sp]
   808a0:	3dc003e0 	ldr	q0, [sp]
   808a4:	3d8007e0 	str	q0, [sp, #16]
   808a8:	f9400fe8 	ldr	x8, [sp, #24]
   808ac:	f90006a8 	str	x8, [x21, #8]
   808b0:	f9400be8 	ldr	x8, [sp, #16]
   808b4:	f9000aa9 	str	x9, [x21, #16]
   808b8:	f90002a8 	str	x8, [x21]
   808bc:	a94757f6 	ldp	x22, x21, [sp, #112]
   808c0:	910243ff 	add	sp, sp, #0x90
   808c4:	d65f03c0 	ret
   808c8:	f0000080 	adrp	x0, 93000 <_ZN17ruspiro_interrupt17interrupt_handler17hba3161a75e7834cbE+0x208>
   808cc:	f00000e2 	adrp	x2, 9f000 <_ZN17ruspiro_allocator6memory10HEAP_START17h21640eff129da783E.llvm.11358094369807046016>
   808d0:	91384000 	add	x0, x0, #0xe10
   808d4:	52800561 	mov	w1, #0x2b                  	// #43
   808d8:	910a6042 	add	x2, x2, #0x298
   808dc:	94003c7d 	bl	8fad0 <_ZN4core9panicking5panic17h546310d45640065bE>
   808e0:	d4200020 	brk	#0x1
   808e4:	f0000080 	adrp	x0, 93000 <_ZN17ruspiro_interrupt17interrupt_handler17hba3161a75e7834cbE+0x208>
   808e8:	f00000e2 	adrp	x2, 9f000 <_ZN17ruspiro_allocator6memory10HEAP_START17h21640eff129da783E.llvm.11358094369807046016>
   808ec:	913d8c00 	add	x0, x0, #0xf63
   808f0:	91074042 	add	x2, x2, #0x1d0
   808f4:	52800601 	mov	w1, #0x30                  	// #48
   808f8:	94003c76 	bl	8fad0 <_ZN4core9panicking5panic17h546310d45640065bE>
   808fc:	d4200020 	brk	#0x1
   80900:	f0000080 	adrp	x0, 93000 <_ZN17ruspiro_interrupt17interrupt_handler17hba3161a75e7834cbE+0x208>
   80904:	f00000e2 	adrp	x2, 9f000 <_ZN17ruspiro_allocator6memory10HEAP_START17h21640eff129da783E.llvm.11358094369807046016>
   80908:	9138ec00 	add	x0, x0, #0xe3b
   8090c:	528004e1 	mov	w1, #0x27                  	// #39
   80910:	9107a042 	add	x2, x2, #0x1e8
   80914:	94003c6f 	bl	8fad0 <_ZN4core9panicking5panic17h546310d45640065bE>
   80918:	d4200020 	brk	#0x1
   8091c:	f0000080 	adrp	x0, 93000 <_ZN17ruspiro_interrupt17interrupt_handler17hba3161a75e7834cbE+0x208>
   80920:	f00000e2 	adrp	x2, 9f000 <_ZN17ruspiro_allocator6memory10HEAP_START17h21640eff129da783E.llvm.11358094369807046016>
   80924:	9138ec00 	add	x0, x0, #0xe3b
   80928:	528004e1 	mov	w1, #0x27                  	// #39
   8092c:	91068042 	add	x2, x2, #0x1a0
   80930:	94003c68 	bl	8fad0 <_ZN4core9panicking5panic17h546310d45640065bE>
   80934:	d4200020 	brk	#0x1

0000000000080938 <_ZN5alloc11collections5btree4node29BalancingContext$LT$K$C$V$GT$11steal_right17he649f7658df10a79E>:
   80938:	d10203ff 	sub	sp, sp, #0x80
   8093c:	a9055ff8 	stp	x24, x23, [sp, #80]
   80940:	f9401837 	ldr	x23, [x1, #48]
   80944:	a9027bfd 	stp	x29, x30, [sp, #32]
   80948:	a9036ffc 	stp	x28, x27, [sp, #48]
   8094c:	a90467fa 	stp	x26, x25, [sp, #64]
   80950:	a90657f6 	stp	x22, x21, [sp, #96]
   80954:	aa0103f5 	mov	x21, x1
   80958:	a9074ff4 	stp	x20, x19, [sp, #112]
   8095c:	aa0003f4 	mov	x20, x0
   80960:	aa1703e0 	mov	x0, x23
   80964:	794226fc 	ldrh	w28, [x23, #274]
   80968:	aa0203f3 	mov	x19, x2
   8096c:	910042e1 	add	x1, x23, #0x10
   80970:	f8408c19 	ldr	x25, [x0, #8]!
   80974:	d37df388 	lsl	x8, x28, #3
   80978:	d1002102 	sub	x2, x8, #0x8
   8097c:	940023f3 	bl	89948 <memmove>
   80980:	aa1703e0 	mov	x0, x23
   80984:	794226e8 	ldrh	w8, [x23, #274]
   80988:	9101c2e1 	add	x1, x23, #0x70
   8098c:	f8460c1a 	ldr	x26, [x0, #96]!
   80990:	f94036fb 	ldr	x27, [x23, #104]
   80994:	d37ced08 	lsl	x8, x8, #4
   80998:	d1004102 	sub	x2, x8, #0x10
   8099c:	940023eb 	bl	89948 <memmove>
   809a0:	f94016bd 	ldr	x29, [x21, #40]
   809a4:	b400029d 	cbz	x29, 809f4 <_ZN5alloc11collections5btree4node29BalancingContext$LT$K$C$V$GT$11steal_right17he649f7658df10a79E+0xbc>
   809a8:	794226e8 	ldrh	w8, [x23, #274]
   809ac:	910462f6 	add	x22, x23, #0x118
   809b0:	f9408ef8 	ldr	x24, [x23, #280]
   809b4:	910482e1 	add	x1, x23, #0x120
   809b8:	aa1603e0 	mov	x0, x22
   809bc:	d37df102 	lsl	x2, x8, #3
   809c0:	940023e2 	bl	89948 <memmove>
   809c4:	d10007a8 	sub	x8, x29, #0x1
   809c8:	f900031f 	str	xzr, [x24]
   809cc:	3400019c 	cbz	w28, 809fc <_ZN5alloc11collections5btree4node29BalancingContext$LT$K$C$V$GT$11steal_right17he649f7658df10a79E+0xc4>
   809d0:	aa1f03e9 	mov	x9, xzr
   809d4:	f8697aca 	ldr	x10, [x22, x9, lsl #3]
   809d8:	9100052b 	add	x11, x9, #0x1
   809dc:	eb0b039f 	cmp	x28, x11
   809e0:	79022149 	strh	w9, [x10, #272]
   809e4:	aa0b03e9 	mov	x9, x11
   809e8:	f9000157 	str	x23, [x10]
   809ec:	54ffff41 	b.ne	809d4 <_ZN5alloc11collections5btree4node29BalancingContext$LT$K$C$V$GT$11steal_right17he649f7658df10a79E+0x9c>  // b.any
   809f0:	14000003 	b	809fc <_ZN5alloc11collections5btree4node29BalancingContext$LT$K$C$V$GT$11steal_right17he649f7658df10a79E+0xc4>
   809f4:	aa1f03e8 	mov	x8, xzr
   809f8:	aa1f03f8 	mov	x24, xzr
   809fc:	794226e9 	ldrh	w9, [x23, #274]
   80a00:	a940aeaa 	ldp	x10, x11, [x21, #8]
   80a04:	51000529 	sub	w9, w9, #0x1
   80a08:	8b0b0d4c 	add	x12, x10, x11, lsl #3
   80a0c:	8b0b114e 	add	x14, x10, x11, lsl #4
   80a10:	790226e9 	strh	w9, [x23, #274]
   80a14:	f9400589 	ldr	x9, [x12, #8]
   80a18:	f9000599 	str	x25, [x12, #8]
   80a1c:	a94629cb 	ldp	x11, x10, [x14, #96]
   80a20:	a941b2ad 	ldp	x13, x12, [x21, #24]
   80a24:	a9066dda 	stp	x26, x27, [x14, #96]
   80a28:	b400028d 	cbz	x13, 80a78 <_ZN5alloc11collections5btree4node29BalancingContext$LT$K$C$V$GT$11steal_right17he649f7658df10a79E+0x140>
   80a2c:	b40005f8 	cbz	x24, 80ae8 <_ZN5alloc11collections5btree4node29BalancingContext$LT$K$C$V$GT$11steal_right17he649f7658df10a79E+0x1b0>
   80a30:	d10005ad 	sub	x13, x13, #0x1
   80a34:	eb0801bf 	cmp	x13, x8
   80a38:	54000661 	b.ne	80b04 <_ZN5alloc11collections5btree4node29BalancingContext$LT$K$C$V$GT$11steal_right17he649f7658df10a79E+0x1cc>  // b.any
   80a3c:	79422588 	ldrh	w8, [x12, #274]
   80a40:	f100291f 	cmp	x8, #0xa
   80a44:	540006e8 	b.hi	80b20 <_ZN5alloc11collections5btree4node29BalancingContext$LT$K$C$V$GT$11steal_right17he649f7658df10a79E+0x1e8>  // b.pmore
   80a48:	1100050d 	add	w13, w8, #0x1
   80a4c:	8b080d8e 	add	x14, x12, x8, lsl #3
   80a50:	8b08118f 	add	x15, x12, x8, lsl #4
   80a54:	91000508 	add	x8, x8, #0x1
   80a58:	7902258d 	strh	w13, [x12, #274]
   80a5c:	8b080d8d 	add	x13, x12, x8, lsl #3
   80a60:	f90005c9 	str	x9, [x14, #8]
   80a64:	a90629eb 	stp	x11, x10, [x15, #96]
   80a68:	f9008db8 	str	x24, [x13, #280]
   80a6c:	f900030c 	str	x12, [x24]
   80a70:	79022308 	strh	w8, [x24, #272]
   80a74:	1400000a 	b	80a9c <_ZN5alloc11collections5btree4node29BalancingContext$LT$K$C$V$GT$11steal_right17he649f7658df10a79E+0x164>
   80a78:	79422588 	ldrh	w8, [x12, #274]
   80a7c:	f1002d1f 	cmp	x8, #0xb
   80a80:	540005a2 	b.cs	80b34 <_ZN5alloc11collections5btree4node29BalancingContext$LT$K$C$V$GT$11steal_right17he649f7658df10a79E+0x1fc>  // b.hs, b.nlast
   80a84:	1100050d 	add	w13, w8, #0x1
   80a88:	8b080d8e 	add	x14, x12, x8, lsl #3
   80a8c:	8b081188 	add	x8, x12, x8, lsl #4
   80a90:	7902258d 	strh	w13, [x12, #274]
   80a94:	f90005c9 	str	x9, [x14, #8]
   80a98:	a906290b 	stp	x11, x10, [x8, #96]
   80a9c:	f94012a8 	ldr	x8, [x21, #32]
   80aa0:	a9455ff8 	ldp	x24, x23, [sp, #80]
   80aa4:	a94467fa 	ldp	x26, x25, [sp, #64]
   80aa8:	f90007e8 	str	x8, [sp, #8]
   80aac:	f9400ea8 	ldr	x8, [x21, #24]
   80ab0:	a94657f6 	ldp	x22, x21, [sp, #96]
   80ab4:	a9436ffc 	ldp	x28, x27, [sp, #48]
   80ab8:	f90003e8 	str	x8, [sp]
   80abc:	3dc003e0 	ldr	q0, [sp]
   80ac0:	a9427bfd 	ldp	x29, x30, [sp, #32]
   80ac4:	3d8007e0 	str	q0, [sp, #16]
   80ac8:	f9400fe8 	ldr	x8, [sp, #24]
   80acc:	f9000688 	str	x8, [x20, #8]
   80ad0:	f9400be8 	ldr	x8, [sp, #16]
   80ad4:	f9000a93 	str	x19, [x20, #16]
   80ad8:	f9000288 	str	x8, [x20]
   80adc:	a9474ff4 	ldp	x20, x19, [sp, #112]
   80ae0:	910203ff 	add	sp, sp, #0x80
   80ae4:	d65f03c0 	ret
   80ae8:	f0000080 	adrp	x0, 93000 <_ZN17ruspiro_interrupt17interrupt_handler17hba3161a75e7834cbE+0x208>
   80aec:	f00000e2 	adrp	x2, 9f000 <_ZN17ruspiro_allocator6memory10HEAP_START17h21640eff129da783E.llvm.11358094369807046016>
   80af0:	91384000 	add	x0, x0, #0xe10
   80af4:	52800561 	mov	w1, #0x2b                  	// #43
   80af8:	910ac042 	add	x2, x2, #0x2b0
   80afc:	94003bf5 	bl	8fad0 <_ZN4core9panicking5panic17h546310d45640065bE>
   80b00:	d4200020 	brk	#0x1
   80b04:	f0000080 	adrp	x0, 93000 <_ZN17ruspiro_interrupt17interrupt_handler17hba3161a75e7834cbE+0x208>
   80b08:	f00000e2 	adrp	x2, 9f000 <_ZN17ruspiro_allocator6memory10HEAP_START17h21640eff129da783E.llvm.11358094369807046016>
   80b0c:	913d8c00 	add	x0, x0, #0xf63
   80b10:	91080042 	add	x2, x2, #0x200
   80b14:	52800601 	mov	w1, #0x30                  	// #48
   80b18:	94003bee 	bl	8fad0 <_ZN4core9panicking5panic17h546310d45640065bE>
   80b1c:	d4200020 	brk	#0x1
   80b20:	f0000080 	adrp	x0, 93000 <_ZN17ruspiro_interrupt17interrupt_handler17hba3161a75e7834cbE+0x208>
   80b24:	f00000e2 	adrp	x2, 9f000 <_ZN17ruspiro_allocator6memory10HEAP_START17h21640eff129da783E.llvm.11358094369807046016>
   80b28:	913b8c00 	add	x0, x0, #0xee3
   80b2c:	91086042 	add	x2, x2, #0x218
   80b30:	14000005 	b	80b44 <_ZN5alloc11collections5btree4node29BalancingContext$LT$K$C$V$GT$11steal_right17he649f7658df10a79E+0x20c>
   80b34:	f0000080 	adrp	x0, 93000 <_ZN17ruspiro_interrupt17interrupt_handler17hba3161a75e7834cbE+0x208>
   80b38:	f00000e2 	adrp	x2, 9f000 <_ZN17ruspiro_allocator6memory10HEAP_START17h21640eff129da783E.llvm.11358094369807046016>
   80b3c:	913b8c00 	add	x0, x0, #0xee3
   80b40:	9106e042 	add	x2, x2, #0x1b8
   80b44:	52800401 	mov	w1, #0x20                  	// #32
   80b48:	94003be2 	bl	8fad0 <_ZN4core9panicking5panic17h546310d45640065bE>
   80b4c:	d4200020 	brk	#0x1

0000000000080b50 <_ZN5alloc11collections5btree4node29BalancingContext$LT$K$C$V$GT$5merge17h27879a03997ce938E>:
   80b50:	d101c3ff 	sub	sp, sp, #0x70
   80b54:	a90367fa 	stp	x26, x25, [sp, #48]
   80b58:	a90557f6 	stp	x22, x21, [sp, #80]
   80b5c:	f9401039 	ldr	x25, [x1, #32]
   80b60:	f9401836 	ldr	x22, [x1, #48]
   80b64:	a9017bfd 	stp	x29, x30, [sp, #16]
   80b68:	a9026ffc 	stp	x28, x27, [sp, #32]
   80b6c:	a9045ff8 	stp	x24, x23, [sp, #64]
   80b70:	a9064ff4 	stp	x20, x19, [sp, #96]
   80b74:	7942273d 	ldrh	w29, [x25, #274]
   80b78:	794226db 	ldrh	w27, [x22, #274]
   80b7c:	8b1d0368 	add	x8, x27, x29
   80b80:	f100291f 	cmp	x8, #0xa
   80b84:	54000fa8 	b.hi	80d78 <_ZN5alloc11collections5btree4node29BalancingContext$LT$K$C$V$GT$5merge17h27879a03997ce938E+0x228>  // b.pmore
   80b88:	f9400c28 	ldr	x8, [x1, #24]
   80b8c:	aa0203f5 	mov	x21, x2
   80b90:	aa0103f7 	mov	x23, x1
   80b94:	aa0003f3 	mov	x19, x0
   80b98:	f100085f 	cmp	x2, #0x2
   80b9c:	f90003e8 	str	x8, [sp]
   80ba0:	54000120 	b.eq	80bc4 <_ZN5alloc11collections5btree4node29BalancingContext$LT$K$C$V$GT$5merge17h27879a03997ce938E+0x74>  // b.none
   80ba4:	eb0303bf 	cmp	x29, x3
   80ba8:	1a9f37e8 	cset	w8, cs  // cs = hs, nlast
   80bac:	eb03037f 	cmp	x27, x3
   80bb0:	1a9f37e9 	cset	w9, cs  // cs = hs, nlast
   80bb4:	f10002bf 	cmp	x21, #0x0
   80bb8:	1a890108 	csel	w8, w8, w9, eq  // eq = none
   80bbc:	7100051f 	cmp	w8, #0x1
   80bc0:	54000ea1 	b.ne	80d94 <_ZN5alloc11collections5btree4node29BalancingContext$LT$K$C$V$GT$5merge17h27879a03997ce938E+0x244>  // b.any
   80bc4:	0b1b03a8 	add	w8, w29, w27
   80bc8:	f90007e3 	str	x3, [sp, #8]
   80bcc:	11000508 	add	w8, w8, #0x1
   80bd0:	79022728 	strh	w8, [x25, #274]
   80bd4:	a940a6e8 	ldp	x8, x9, [x23, #8]
   80bd8:	8b090d00 	add	x0, x8, x9, lsl #3
   80bdc:	79422508 	ldrh	w8, [x8, #274]
   80be0:	aa2903e9 	mvn	x9, x9
   80be4:	f8408c1a 	ldr	x26, [x0, #8]!
   80be8:	8b080128 	add	x8, x9, x8
   80bec:	d37df102 	lsl	x2, x8, #3
   80bf0:	91002001 	add	x1, x0, #0x8
   80bf4:	94002355 	bl	89948 <memmove>
   80bf8:	910007bc 	add	x28, x29, #0x1
   80bfc:	91002328 	add	x8, x25, #0x8
   80c00:	910022c1 	add	x1, x22, #0x8
   80c04:	d37df378 	lsl	x24, x27, #3
   80c08:	8b1c0d00 	add	x0, x8, x28, lsl #3
   80c0c:	aa1803e2 	mov	x2, x24
   80c10:	f83d791a 	str	x26, [x8, x29, lsl #3]
   80c14:	940022a1 	bl	89698 <memcpy>
   80c18:	a940a6e8 	ldp	x8, x9, [x23, #8]
   80c1c:	8b091100 	add	x0, x8, x9, lsl #4
   80c20:	79422508 	ldrh	w8, [x8, #274]
   80c24:	aa2903e9 	mvn	x9, x9
   80c28:	f8460c1a 	ldr	x26, [x0, #96]!
   80c2c:	8b080128 	add	x8, x9, x8
   80c30:	d37ced02 	lsl	x2, x8, #4
   80c34:	f9400414 	ldr	x20, [x0, #8]
   80c38:	91004001 	add	x1, x0, #0x10
   80c3c:	94002343 	bl	89948 <memmove>
   80c40:	91018328 	add	x8, x25, #0x60
   80c44:	910182c1 	add	x1, x22, #0x60
   80c48:	8b1d1109 	add	x9, x8, x29, lsl #4
   80c4c:	8b1c1100 	add	x0, x8, x28, lsl #4
   80c50:	d37cef62 	lsl	x2, x27, #4
   80c54:	a900513a 	stp	x26, x20, [x9]
   80c58:	94002290 	bl	89698 <memcpy>
   80c5c:	a940eafd 	ldp	x29, x26, [x23, #8]
   80c60:	794227a8 	ldrh	w8, [x29, #274]
   80c64:	91000754 	add	x20, x26, #0x1
   80c68:	910463a9 	add	x9, x29, #0x118
   80c6c:	aa3403ea 	mvn	x10, x20
   80c70:	8b1a0d2b 	add	x11, x9, x26, lsl #3
   80c74:	8b140d20 	add	x0, x9, x20, lsl #3
   80c78:	91004161 	add	x1, x11, #0x10
   80c7c:	8b0a0108 	add	x8, x8, x10
   80c80:	d37df108 	lsl	x8, x8, #3
   80c84:	91002102 	add	x2, x8, #0x8
   80c88:	94002330 	bl	89948 <memmove>
   80c8c:	794227a8 	ldrh	w8, [x29, #274]
   80c90:	eb08029f 	cmp	x20, x8
   80c94:	54000162 	b.cs	80cc0 <_ZN5alloc11collections5btree4node29BalancingContext$LT$K$C$V$GT$5merge17h27879a03997ce938E+0x170>  // b.hs, b.nlast
   80c98:	d1000508 	sub	x8, x8, #0x1
   80c9c:	8b1a0fa9 	add	x9, x29, x26, lsl #3
   80ca0:	9100074a 	add	x10, x26, #0x1
   80ca4:	aa0a03fa 	mov	x26, x10
   80ca8:	eb0a011f 	cmp	x8, x10
   80cac:	f9409129 	ldr	x9, [x9, #288]
   80cb0:	7902212a 	strh	w10, [x9, #272]
   80cb4:	f900013d 	str	x29, [x9]
   80cb8:	54ffff21 	b.ne	80c9c <_ZN5alloc11collections5btree4node29BalancingContext$LT$K$C$V$GT$5merge17h27879a03997ce938E+0x14c>  // b.any
   80cbc:	794227a8 	ldrh	w8, [x29, #274]
   80cc0:	f94002e9 	ldr	x9, [x23]
   80cc4:	51000508 	sub	w8, w8, #0x1
   80cc8:	790227a8 	strh	w8, [x29, #274]
   80ccc:	f100053f 	cmp	x9, #0x1
   80cd0:	540002a9 	b.ls	80d24 <_ZN5alloc11collections5btree4node29BalancingContext$LT$K$C$V$GT$5merge17h27879a03997ce938E+0x1d4>  // b.plast
   80cd4:	8b1c0f28 	add	x8, x25, x28, lsl #3
   80cd8:	910462c1 	add	x1, x22, #0x118
   80cdc:	91046100 	add	x0, x8, #0x118
   80ce0:	91002302 	add	x2, x24, #0x8
   80ce4:	9400226d 	bl	89698 <memcpy>
   80ce8:	8b1b0388 	add	x8, x28, x27
   80cec:	52802f01 	mov	w1, #0x178                 	// #376
   80cf0:	aa1c03e9 	mov	x9, x28
   80cf4:	8b090f2a 	add	x10, x25, x9, lsl #3
   80cf8:	eb08013f 	cmp	x9, x8
   80cfc:	f9408d4b 	ldr	x11, [x10, #280]
   80d00:	9a89252a 	cinc	x10, x9, cc  // cc = lo, ul, last
   80d04:	eb08015f 	cmp	x10, x8
   80d08:	f9000179 	str	x25, [x11]
   80d0c:	79022169 	strh	w9, [x11, #272]
   80d10:	540000c8 	b.hi	80d28 <_ZN5alloc11collections5btree4node29BalancingContext$LT$K$C$V$GT$5merge17h27879a03997ce938E+0x1d8>  // b.pmore
   80d14:	eb08013f 	cmp	x9, x8
   80d18:	aa0a03e9 	mov	x9, x10
   80d1c:	54fffec3 	b.cc	80cf4 <_ZN5alloc11collections5btree4node29BalancingContext$LT$K$C$V$GT$5merge17h27879a03997ce938E+0x1a4>  // b.lo, b.ul, b.last
   80d20:	14000002 	b	80d28 <_ZN5alloc11collections5btree4node29BalancingContext$LT$K$C$V$GT$5merge17h27879a03997ce938E+0x1d8>
   80d24:	52802301 	mov	w1, #0x118                 	// #280
   80d28:	aa1603e0 	mov	x0, x22
   80d2c:	52800102 	mov	w2, #0x8                   	// #8
   80d30:	9400099c 	bl	833a0 <__rust_dealloc>
   80d34:	f94007e9 	ldr	x9, [sp, #8]
   80d38:	f10002bf 	cmp	x21, #0x0
   80d3c:	9a9c03e8 	csel	x8, xzr, x28, eq  // eq = none
   80d40:	f1000abf 	cmp	x21, #0x2
   80d44:	a94557f6 	ldp	x22, x21, [sp, #80]
   80d48:	8b090108 	add	x8, x8, x9
   80d4c:	f94003e9 	ldr	x9, [sp]
   80d50:	9a8803e8 	csel	x8, xzr, x8, eq  // eq = none
   80d54:	a9445ff8 	ldp	x24, x23, [sp, #64]
   80d58:	a9006669 	stp	x9, x25, [x19]
   80d5c:	f9000a68 	str	x8, [x19, #16]
   80d60:	a9464ff4 	ldp	x20, x19, [sp, #96]
   80d64:	a94367fa 	ldp	x26, x25, [sp, #48]
   80d68:	a9426ffc 	ldp	x28, x27, [sp, #32]
   80d6c:	a9417bfd 	ldp	x29, x30, [sp, #16]
   80d70:	9101c3ff 	add	sp, sp, #0x70
   80d74:	d65f03c0 	ret
   80d78:	900000a0 	adrp	x0, 94000 <anon.98868c38ea5667d973ab3dd5b7fa8ab3.16.llvm.5513183134649085050+0x30>
   80d7c:	f00000e2 	adrp	x2, 9f000 <_ZN17ruspiro_allocator6memory10HEAP_START17h21640eff129da783E.llvm.11358094369807046016>
   80d80:	91009800 	add	x0, x0, #0x26
   80d84:	52800621 	mov	w1, #0x31                  	// #49
   80d88:	910b2042 	add	x2, x2, #0x2c8
   80d8c:	94003b51 	bl	8fad0 <_ZN4core9panicking5panic17h546310d45640065bE>
   80d90:	d4200020 	brk	#0x1
   80d94:	900000a0 	adrp	x0, 94000 <anon.98868c38ea5667d973ab3dd5b7fa8ab3.16.llvm.5513183134649085050+0x30>
   80d98:	f00000e2 	adrp	x2, 9f000 <_ZN17ruspiro_allocator6memory10HEAP_START17h21640eff129da783E.llvm.11358094369807046016>
   80d9c:	91015c00 	add	x0, x0, #0x57
   80da0:	52801581 	mov	w1, #0xac                  	// #172
   80da4:	910b8042 	add	x2, x2, #0x2e0
   80da8:	94003b4a 	bl	8fad0 <_ZN4core9panicking5panic17h546310d45640065bE>
   80dac:	d4200020 	brk	#0x1

0000000000080db0 <_ZN5alloc11collections5btree6remove259_$LT$impl$u20$alloc..collections..btree..node..Handle$LT$alloc..collections..btree..node..NodeRef$LT$alloc..collections..btree..node..marker..Mut$C$K$C$V$C$alloc..collections..btree..node..marker..Leaf$GT$$C$alloc..collections..btree..node..marker..KV$GT$$GT$14remove_leaf_kv17hbcbd10e49eab67d3E>:
   80db0:	d10343ff 	sub	sp, sp, #0xd0
   80db4:	a90967fa 	stp	x26, x25, [sp, #144]
   80db8:	a90c4ff4 	stp	x20, x19, [sp, #192]
   80dbc:	aa0003f3 	mov	x19, x0
   80dc0:	a940d039 	ldp	x25, x20, [x1, #8]
   80dc4:	a9086ffc 	stp	x28, x27, [sp, #128]
   80dc8:	a90a5ff8 	stp	x24, x23, [sp, #160]
   80dcc:	a90b57f6 	stp	x22, x21, [sp, #176]
   80dd0:	91002328 	add	x8, x25, #0x8
   80dd4:	79422729 	ldrh	w9, [x25, #274]
   80dd8:	8b140d00 	add	x0, x8, x20, lsl #3
   80ddc:	9100069b 	add	x27, x20, #0x1
   80de0:	aa3403fc 	mvn	x28, x20
   80de4:	f940003a 	ldr	x26, [x1]
   80de8:	aa0203f5 	mov	x21, x2
   80dec:	f9400016 	ldr	x22, [x0]
   80df0:	8b1b0d01 	add	x1, x8, x27, lsl #3
   80df4:	8b090388 	add	x8, x28, x9
   80df8:	f9003bfe 	str	x30, [sp, #112]
   80dfc:	d37df102 	lsl	x2, x8, #3
   80e00:	940022d2 	bl	89948 <memmove>
   80e04:	91018328 	add	x8, x25, #0x60
   80e08:	79422729 	ldrh	w9, [x25, #274]
   80e0c:	8b141100 	add	x0, x8, x20, lsl #4
   80e10:	8b1b1101 	add	x1, x8, x27, lsl #4
   80e14:	a9406017 	ldp	x23, x24, [x0]
   80e18:	8b090388 	add	x8, x28, x9
   80e1c:	d37ced02 	lsl	x2, x8, #4
   80e20:	940022ca 	bl	89948 <memmove>
   80e24:	79422728 	ldrh	w8, [x25, #274]
   80e28:	5100050a 	sub	w10, w8, #0x1
   80e2c:	7100115f 	cmp	w10, #0x4
   80e30:	7902272a 	strh	w10, [x25, #274]
   80e34:	540011e8 	b.hi	81070 <_ZN5alloc11collections5btree6remove259_$LT$impl$u20$alloc..collections..btree..node..Handle$LT$alloc..collections..btree..node..NodeRef$LT$alloc..collections..btree..node..marker..Mut$C$K$C$V$C$alloc..collections..btree..node..marker..Leaf$GT$$C$alloc..collections..btree..node..marker..KV$GT$$GT$14remove_leaf_kv17hbcbd10e49eab67d3E+0x2c0>  // b.pmore
   80e38:	f9400328 	ldr	x8, [x25]
   80e3c:	b4000288 	cbz	x8, 80e8c <_ZN5alloc11collections5btree6remove259_$LT$impl$u20$alloc..collections..btree..node..Handle$LT$alloc..collections..btree..node..NodeRef$LT$alloc..collections..btree..node..marker..Mut$C$K$C$V$C$alloc..collections..btree..node..marker..Leaf$GT$$C$alloc..collections..btree..node..marker..KV$GT$$GT$14remove_leaf_kv17hbcbd10e49eab67d3E+0xdc>
   80e40:	7942232b 	ldrh	w11, [x25, #272]
   80e44:	91000749 	add	x9, x26, #0x1
   80e48:	b40002eb 	cbz	x11, 80ea4 <_ZN5alloc11collections5btree6remove259_$LT$impl$u20$alloc..collections..btree..node..Handle$LT$alloc..collections..btree..node..NodeRef$LT$alloc..collections..btree..node..marker..Mut$C$K$C$V$C$alloc..collections..btree..node..marker..Leaf$GT$$C$alloc..collections..btree..node..marker..KV$GT$$GT$14remove_leaf_kv17hbcbd10e49eab67d3E+0xf4>
   80e4c:	d100056c 	sub	x12, x11, #0x1
   80e50:	8b0c0d0b 	add	x11, x8, x12, lsl #3
   80e54:	f9408d6b 	ldr	x11, [x11, #280]
   80e58:	7942256d 	ldrh	w13, [x11, #274]
   80e5c:	8b2a21aa 	add	x10, x13, w10, uxth
   80e60:	9100054a 	add	x10, x10, #0x1
   80e64:	f100315f 	cmp	x10, #0xc
   80e68:	540004c2 	b.cs	80f00 <_ZN5alloc11collections5btree6remove259_$LT$impl$u20$alloc..collections..btree..node..Handle$LT$alloc..collections..btree..node..NodeRef$LT$alloc..collections..btree..node..marker..Mut$C$K$C$V$C$alloc..collections..btree..node..marker..Leaf$GT$$C$alloc..collections..btree..node..marker..KV$GT$$GT$14remove_leaf_kv17hbcbd10e49eab67d3E+0x150>  // b.hs, b.nlast
   80e6c:	a903a3e9 	stp	x9, x8, [sp, #56]
   80e70:	910023e0 	add	x0, sp, #0x8
   80e74:	a904ebec 	stp	x12, x26, [sp, #72]
   80e78:	9100e3e1 	add	x1, sp, #0x38
   80e7c:	a905ebeb 	stp	x11, x26, [sp, #88]
   80e80:	52800022 	mov	w2, #0x1                   	// #1
   80e84:	f90037f9 	str	x25, [sp, #104]
   80e88:	14000017 	b	80ee4 <_ZN5alloc11collections5btree6remove259_$LT$impl$u20$alloc..collections..btree..node..Handle$LT$alloc..collections..btree..node..NodeRef$LT$alloc..collections..btree..node..marker..Mut$C$K$C$V$C$alloc..collections..btree..node..marker..Leaf$GT$$C$alloc..collections..btree..node..marker..KV$GT$$GT$14remove_leaf_kv17hbcbd10e49eab67d3E+0x134>
   80e8c:	a900e7fa 	stp	x26, x25, [sp, #8]
   80e90:	f9000ff4 	str	x20, [sp, #24]
   80e94:	a940e7fa 	ldp	x26, x25, [sp, #8]
   80e98:	f9400328 	ldr	x8, [x25]
   80e9c:	b5000648 	cbnz	x8, 80f64 <_ZN5alloc11collections5btree6remove259_$LT$impl$u20$alloc..collections..btree..node..Handle$LT$alloc..collections..btree..node..NodeRef$LT$alloc..collections..btree..node..marker..Mut$C$K$C$V$C$alloc..collections..btree..node..marker..Leaf$GT$$C$alloc..collections..btree..node..marker..KV$GT$$GT$14remove_leaf_kv17hbcbd10e49eab67d3E+0x1b4>
   80ea0:	14000074 	b	81070 <_ZN5alloc11collections5btree6remove259_$LT$impl$u20$alloc..collections..btree..node..Handle$LT$alloc..collections..btree..node..NodeRef$LT$alloc..collections..btree..node..marker..Mut$C$K$C$V$C$alloc..collections..btree..node..marker..Leaf$GT$$C$alloc..collections..btree..node..marker..KV$GT$$GT$14remove_leaf_kv17hbcbd10e49eab67d3E+0x2c0>
   80ea4:	7942250c 	ldrh	w12, [x8, #274]
   80ea8:	34000fac 	cbz	w12, 8109c <_ZN5alloc11collections5btree6remove259_$LT$impl$u20$alloc..collections..btree..node..Handle$LT$alloc..collections..btree..node..NodeRef$LT$alloc..collections..btree..node..marker..Mut$C$K$C$V$C$alloc..collections..btree..node..marker..Leaf$GT$$C$alloc..collections..btree..node..marker..KV$GT$$GT$14remove_leaf_kv17hbcbd10e49eab67d3E+0x2ec>
   80eac:	8b0b0d0c 	add	x12, x8, x11, lsl #3
   80eb0:	f940918c 	ldr	x12, [x12, #288]
   80eb4:	7942258d 	ldrh	w13, [x12, #274]
   80eb8:	8b2a21aa 	add	x10, x13, w10, uxth
   80ebc:	9100054a 	add	x10, x10, #0x1
   80ec0:	f100315f 	cmp	x10, #0xc
   80ec4:	54000382 	b.cs	80f34 <_ZN5alloc11collections5btree6remove259_$LT$impl$u20$alloc..collections..btree..node..Handle$LT$alloc..collections..btree..node..NodeRef$LT$alloc..collections..btree..node..marker..Mut$C$K$C$V$C$alloc..collections..btree..node..marker..Leaf$GT$$C$alloc..collections..btree..node..marker..KV$GT$$GT$14remove_leaf_kv17hbcbd10e49eab67d3E+0x184>  // b.hs, b.nlast
   80ec8:	910023e0 	add	x0, sp, #0x8
   80ecc:	9100e3e1 	add	x1, sp, #0x38
   80ed0:	aa1f03e2 	mov	x2, xzr
   80ed4:	a903a3e9 	stp	x9, x8, [sp, #56]
   80ed8:	a904ebeb 	stp	x11, x26, [sp, #72]
   80edc:	a905ebf9 	stp	x25, x26, [sp, #88]
   80ee0:	f90037ec 	str	x12, [sp, #104]
   80ee4:	aa1403e3 	mov	x3, x20
   80ee8:	97ffff1a 	bl	80b50 <_ZN5alloc11collections5btree4node29BalancingContext$LT$K$C$V$GT$5merge17h27879a03997ce938E>
   80eec:	a940e7fa 	ldp	x26, x25, [sp, #8]
   80ef0:	f9400ff4 	ldr	x20, [sp, #24]
   80ef4:	f9400328 	ldr	x8, [x25]
   80ef8:	b5000368 	cbnz	x8, 80f64 <_ZN5alloc11collections5btree6remove259_$LT$impl$u20$alloc..collections..btree..node..Handle$LT$alloc..collections..btree..node..NodeRef$LT$alloc..collections..btree..node..marker..Mut$C$K$C$V$C$alloc..collections..btree..node..marker..Leaf$GT$$C$alloc..collections..btree..node..marker..KV$GT$$GT$14remove_leaf_kv17hbcbd10e49eab67d3E+0x1b4>
   80efc:	1400005d 	b	81070 <_ZN5alloc11collections5btree6remove259_$LT$impl$u20$alloc..collections..btree..node..Handle$LT$alloc..collections..btree..node..NodeRef$LT$alloc..collections..btree..node..marker..Mut$C$K$C$V$C$alloc..collections..btree..node..marker..Leaf$GT$$C$alloc..collections..btree..node..marker..KV$GT$$GT$14remove_leaf_kv17hbcbd10e49eab67d3E+0x2c0>
   80f00:	910023e0 	add	x0, sp, #0x8
   80f04:	9100e3e1 	add	x1, sp, #0x38
   80f08:	aa1403e2 	mov	x2, x20
   80f0c:	a903a3e9 	stp	x9, x8, [sp, #56]
   80f10:	a904ebec 	stp	x12, x26, [sp, #72]
   80f14:	a905ebeb 	stp	x11, x26, [sp, #88]
   80f18:	f90037f9 	str	x25, [sp, #104]
   80f1c:	97fffde7 	bl	806b8 <_ZN5alloc11collections5btree4node29BalancingContext$LT$K$C$V$GT$10steal_left17h4e06ea9b49b55a93E>
   80f20:	a940e7fa 	ldp	x26, x25, [sp, #8]
   80f24:	f9400ff4 	ldr	x20, [sp, #24]
   80f28:	f9400328 	ldr	x8, [x25]
   80f2c:	b50001c8 	cbnz	x8, 80f64 <_ZN5alloc11collections5btree6remove259_$LT$impl$u20$alloc..collections..btree..node..Handle$LT$alloc..collections..btree..node..NodeRef$LT$alloc..collections..btree..node..marker..Mut$C$K$C$V$C$alloc..collections..btree..node..marker..Leaf$GT$$C$alloc..collections..btree..node..marker..KV$GT$$GT$14remove_leaf_kv17hbcbd10e49eab67d3E+0x1b4>
   80f30:	14000050 	b	81070 <_ZN5alloc11collections5btree6remove259_$LT$impl$u20$alloc..collections..btree..node..Handle$LT$alloc..collections..btree..node..NodeRef$LT$alloc..collections..btree..node..marker..Mut$C$K$C$V$C$alloc..collections..btree..node..marker..Leaf$GT$$C$alloc..collections..btree..node..marker..KV$GT$$GT$14remove_leaf_kv17hbcbd10e49eab67d3E+0x2c0>
   80f34:	910023e0 	add	x0, sp, #0x8
   80f38:	9100e3e1 	add	x1, sp, #0x38
   80f3c:	aa1403e2 	mov	x2, x20
   80f40:	a903a3e9 	stp	x9, x8, [sp, #56]
   80f44:	a904ebeb 	stp	x11, x26, [sp, #72]
   80f48:	a905ebf9 	stp	x25, x26, [sp, #88]
   80f4c:	f90037ec 	str	x12, [sp, #104]
   80f50:	97fffe7a 	bl	80938 <_ZN5alloc11collections5btree4node29BalancingContext$LT$K$C$V$GT$11steal_right17he649f7658df10a79E>
   80f54:	a940e7fa 	ldp	x26, x25, [sp, #8]
   80f58:	f9400ff4 	ldr	x20, [sp, #24]
   80f5c:	f9400328 	ldr	x8, [x25]
   80f60:	b4000888 	cbz	x8, 81070 <_ZN5alloc11collections5btree6remove259_$LT$impl$u20$alloc..collections..btree..node..Handle$LT$alloc..collections..btree..node..NodeRef$LT$alloc..collections..btree..node..marker..Mut$C$K$C$V$C$alloc..collections..btree..node..marker..Leaf$GT$$C$alloc..collections..btree..node..marker..KV$GT$$GT$14remove_leaf_kv17hbcbd10e49eab67d3E+0x2c0>
   80f64:	91000749 	add	x9, x26, #0x1
   80f68:	1400000f 	b	80fa4 <_ZN5alloc11collections5btree6remove259_$LT$impl$u20$alloc..collections..btree..node..Handle$LT$alloc..collections..btree..node..NodeRef$LT$alloc..collections..btree..node..marker..Mut$C$K$C$V$C$alloc..collections..btree..node..marker..Leaf$GT$$C$alloc..collections..btree..node..marker..KV$GT$$GT$14remove_leaf_kv17hbcbd10e49eab67d3E+0x1f4>
   80f6c:	a903abec 	stp	x12, x10, [sp, #56]
   80f70:	a904a7ed 	stp	x13, x9, [sp, #72]
   80f74:	a905a7e8 	stp	x8, x9, [sp, #88]
   80f78:	f90037ee 	str	x14, [sp, #104]
   80f7c:	910083e0 	add	x0, sp, #0x20
   80f80:	9100e3e1 	add	x1, sp, #0x38
   80f84:	52800042 	mov	w2, #0x2                   	// #2
   80f88:	aa1f03e3 	mov	x3, xzr
   80f8c:	97fffef1 	bl	80b50 <_ZN5alloc11collections5btree4node29BalancingContext$LT$K$C$V$GT$5merge17h27879a03997ce938E>
   80f90:	a94223e9 	ldp	x9, x8, [sp, #32]
   80f94:	f9400108 	ldr	x8, [x8]
   80f98:	f100011f 	cmp	x8, #0x0
   80f9c:	9a8907e9 	csinc	x9, xzr, x9, eq  // eq = none
   80fa0:	b4000688 	cbz	x8, 81070 <_ZN5alloc11collections5btree6remove259_$LT$impl$u20$alloc..collections..btree..node..Handle$LT$alloc..collections..btree..node..NodeRef$LT$alloc..collections..btree..node..marker..Mut$C$K$C$V$C$alloc..collections..btree..node..marker..Leaf$GT$$C$alloc..collections..btree..node..marker..KV$GT$$GT$14remove_leaf_kv17hbcbd10e49eab67d3E+0x2c0>
   80fa4:	7942250b 	ldrh	w11, [x8, #274]
   80fa8:	b40004eb 	cbz	x11, 81044 <_ZN5alloc11collections5btree6remove259_$LT$impl$u20$alloc..collections..btree..node..Handle$LT$alloc..collections..btree..node..NodeRef$LT$alloc..collections..btree..node..marker..Mut$C$K$C$V$C$alloc..collections..btree..node..marker..Leaf$GT$$C$alloc..collections..btree..node..marker..KV$GT$$GT$14remove_leaf_kv17hbcbd10e49eab67d3E+0x294>
   80fac:	7100157f 	cmp	w11, #0x5
   80fb0:	54000602 	b.cs	81070 <_ZN5alloc11collections5btree6remove259_$LT$impl$u20$alloc..collections..btree..node..Handle$LT$alloc..collections..btree..node..NodeRef$LT$alloc..collections..btree..node..marker..Mut$C$K$C$V$C$alloc..collections..btree..node..marker..Leaf$GT$$C$alloc..collections..btree..node..marker..KV$GT$$GT$14remove_leaf_kv17hbcbd10e49eab67d3E+0x2c0>  // b.hs, b.nlast
   80fb4:	f940010a 	ldr	x10, [x8]
   80fb8:	b40005ca 	cbz	x10, 81070 <_ZN5alloc11collections5btree6remove259_$LT$impl$u20$alloc..collections..btree..node..Handle$LT$alloc..collections..btree..node..NodeRef$LT$alloc..collections..btree..node..marker..Mut$C$K$C$V$C$alloc..collections..btree..node..marker..Leaf$GT$$C$alloc..collections..btree..node..marker..KV$GT$$GT$14remove_leaf_kv17hbcbd10e49eab67d3E+0x2c0>
   80fbc:	7942210d 	ldrh	w13, [x8, #272]
   80fc0:	9100052c 	add	x12, x9, #0x1
   80fc4:	b40001cd 	cbz	x13, 80ffc <_ZN5alloc11collections5btree6remove259_$LT$impl$u20$alloc..collections..btree..node..Handle$LT$alloc..collections..btree..node..NodeRef$LT$alloc..collections..btree..node..marker..Mut$C$K$C$V$C$alloc..collections..btree..node..marker..Leaf$GT$$C$alloc..collections..btree..node..marker..KV$GT$$GT$14remove_leaf_kv17hbcbd10e49eab67d3E+0x24c>
   80fc8:	d10005ae 	sub	x14, x13, #0x1
   80fcc:	8b0e0d4d 	add	x13, x10, x14, lsl #3
   80fd0:	f9408dad 	ldr	x13, [x13, #280]
   80fd4:	794225af 	ldrh	w15, [x13, #274]
   80fd8:	8b0f016b 	add	x11, x11, x15
   80fdc:	9100056b 	add	x11, x11, #0x1
   80fe0:	f100317f 	cmp	x11, #0xc
   80fe4:	54000362 	b.cs	81050 <_ZN5alloc11collections5btree6remove259_$LT$impl$u20$alloc..collections..btree..node..Handle$LT$alloc..collections..btree..node..NodeRef$LT$alloc..collections..btree..node..marker..Mut$C$K$C$V$C$alloc..collections..btree..node..marker..Leaf$GT$$C$alloc..collections..btree..node..marker..KV$GT$$GT$14remove_leaf_kv17hbcbd10e49eab67d3E+0x2a0>  // b.hs, b.nlast
   80fe8:	a903abec 	stp	x12, x10, [sp, #56]
   80fec:	a904a7ee 	stp	x14, x9, [sp, #72]
   80ff0:	a905a7ed 	stp	x13, x9, [sp, #88]
   80ff4:	f90037e8 	str	x8, [sp, #104]
   80ff8:	17ffffe1 	b	80f7c <_ZN5alloc11collections5btree6remove259_$LT$impl$u20$alloc..collections..btree..node..Handle$LT$alloc..collections..btree..node..NodeRef$LT$alloc..collections..btree..node..marker..Mut$C$K$C$V$C$alloc..collections..btree..node..marker..Leaf$GT$$C$alloc..collections..btree..node..marker..KV$GT$$GT$14remove_leaf_kv17hbcbd10e49eab67d3E+0x1cc>
   80ffc:	7942254e 	ldrh	w14, [x10, #274]
   81000:	340004ee 	cbz	w14, 8109c <_ZN5alloc11collections5btree6remove259_$LT$impl$u20$alloc..collections..btree..node..Handle$LT$alloc..collections..btree..node..NodeRef$LT$alloc..collections..btree..node..marker..Mut$C$K$C$V$C$alloc..collections..btree..node..marker..Leaf$GT$$C$alloc..collections..btree..node..marker..KV$GT$$GT$14remove_leaf_kv17hbcbd10e49eab67d3E+0x2ec>
   81004:	8b0d0d4e 	add	x14, x10, x13, lsl #3
   81008:	f94091ce 	ldr	x14, [x14, #288]
   8100c:	794225cf 	ldrh	w15, [x14, #274]
   81010:	8b0f016b 	add	x11, x11, x15
   81014:	9100056b 	add	x11, x11, #0x1
   81018:	f100317f 	cmp	x11, #0xc
   8101c:	54fffa83 	b.cc	80f6c <_ZN5alloc11collections5btree6remove259_$LT$impl$u20$alloc..collections..btree..node..Handle$LT$alloc..collections..btree..node..NodeRef$LT$alloc..collections..btree..node..marker..Mut$C$K$C$V$C$alloc..collections..btree..node..marker..Leaf$GT$$C$alloc..collections..btree..node..marker..KV$GT$$GT$14remove_leaf_kv17hbcbd10e49eab67d3E+0x1bc>  // b.lo, b.ul, b.last
   81020:	910083e0 	add	x0, sp, #0x20
   81024:	9100e3e1 	add	x1, sp, #0x38
   81028:	aa1f03e2 	mov	x2, xzr
   8102c:	a903abec 	stp	x12, x10, [sp, #56]
   81030:	a904a7ff 	stp	xzr, x9, [sp, #72]
   81034:	a905a7e8 	stp	x8, x9, [sp, #88]
   81038:	f90037ee 	str	x14, [sp, #104]
   8103c:	97fffe3f 	bl	80938 <_ZN5alloc11collections5btree4node29BalancingContext$LT$K$C$V$GT$11steal_right17he649f7658df10a79E>
   81040:	1400000c 	b	81070 <_ZN5alloc11collections5btree6remove259_$LT$impl$u20$alloc..collections..btree..node..Handle$LT$alloc..collections..btree..node..NodeRef$LT$alloc..collections..btree..node..marker..Mut$C$K$C$V$C$alloc..collections..btree..node..marker..Leaf$GT$$C$alloc..collections..btree..node..marker..KV$GT$$GT$14remove_leaf_kv17hbcbd10e49eab67d3E+0x2c0>
   81044:	52800028 	mov	w8, #0x1                   	// #1
   81048:	390002a8 	strb	w8, [x21]
   8104c:	14000009 	b	81070 <_ZN5alloc11collections5btree6remove259_$LT$impl$u20$alloc..collections..btree..node..Handle$LT$alloc..collections..btree..node..NodeRef$LT$alloc..collections..btree..node..marker..Mut$C$K$C$V$C$alloc..collections..btree..node..marker..Leaf$GT$$C$alloc..collections..btree..node..marker..KV$GT$$GT$14remove_leaf_kv17hbcbd10e49eab67d3E+0x2c0>
   81050:	910083e0 	add	x0, sp, #0x20
   81054:	9100e3e1 	add	x1, sp, #0x38
   81058:	aa1f03e2 	mov	x2, xzr
   8105c:	a903abec 	stp	x12, x10, [sp, #56]
   81060:	a904a7ee 	stp	x14, x9, [sp, #72]
   81064:	a905a7ed 	stp	x13, x9, [sp, #88]
   81068:	f90037e8 	str	x8, [sp, #104]
   8106c:	97fffd93 	bl	806b8 <_ZN5alloc11collections5btree4node29BalancingContext$LT$K$C$V$GT$10steal_left17h4e06ea9b49b55a93E>
   81070:	a9005e76 	stp	x22, x23, [x19]
   81074:	a9016a78 	stp	x24, x26, [x19, #16]
   81078:	a9025279 	stp	x25, x20, [x19, #32]
   8107c:	a94c4ff4 	ldp	x20, x19, [sp, #192]
   81080:	a94b57f6 	ldp	x22, x21, [sp, #176]
   81084:	a94a5ff8 	ldp	x24, x23, [sp, #160]
   81088:	a94967fa 	ldp	x26, x25, [sp, #144]
   8108c:	a9486ffc 	ldp	x28, x27, [sp, #128]
   81090:	f9403bfe 	ldr	x30, [sp, #112]
   81094:	910343ff 	add	sp, sp, #0xd0
   81098:	d65f03c0 	ret
   8109c:	d00000e8 	adrp	x8, 9f000 <_ZN17ruspiro_allocator6memory10HEAP_START17h21640eff129da783E.llvm.11358094369807046016>
   810a0:	90000009 	adrp	x9, 81000 <_ZN5alloc11collections5btree6remove259_$LT$impl$u20$alloc..collections..btree..node..Handle$LT$alloc..collections..btree..node..NodeRef$LT$alloc..collections..btree..node..marker..Mut$C$K$C$V$C$alloc..collections..btree..node..marker..Leaf$GT$$C$alloc..collections..btree..node..marker..KV$GT$$GT$14remove_leaf_kv17hbcbd10e49eab67d3E+0x250>
   810a4:	91090108 	add	x8, x8, #0x240
   810a8:	912b6129 	add	x9, x9, #0xad8
   810ac:	d00000e1 	adrp	x1, 9f000 <_ZN17ruspiro_allocator6memory10HEAP_START17h21640eff129da783E.llvm.11358094369807046016>
   810b0:	9100e3e0 	add	x0, sp, #0x38
   810b4:	91094021 	add	x1, x1, #0x250
   810b8:	a904ffff 	stp	xzr, xzr, [sp, #72]
   810bc:	a90227e8 	stp	x8, x9, [sp, #32]
   810c0:	d00000e9 	adrp	x9, 9f000 <_ZN17ruspiro_allocator6memory10HEAP_START17h21640eff129da783E.llvm.11358094369807046016>
   810c4:	52800028 	mov	w8, #0x1                   	// #1
   810c8:	9108c129 	add	x9, x9, #0x230
   810cc:	a903a3e9 	stp	x9, x8, [sp, #56]
   810d0:	910083e9 	add	x9, sp, #0x20
   810d4:	a905a3e9 	stp	x9, x8, [sp, #88]
   810d8:	94003aa0 	bl	8fb58 <_ZN4core9panicking9panic_fmt17he72c5c806e9fe43cE>
   810dc:	d4200020 	brk	#0x1

00000000000810e0 <_ZN5alloc11collections5btree6remove269_$LT$impl$u20$alloc..collections..btree..node..Handle$LT$alloc..collections..btree..node..NodeRef$LT$alloc..collections..btree..node..marker..Mut$C$K$C$V$C$alloc..collections..btree..node..marker..LeafOrInternal$GT$$C$alloc..collections..btree..node..marker..KV$GT$$GT$18remove_kv_tracking17h8f3d84d0cbfa725eE>:
   810e0:	d10203ff 	sub	sp, sp, #0x80
   810e4:	a940240a 	ldp	x10, x9, [x0]
   810e8:	aa0103e2 	mov	x2, x1
   810ec:	f940080b 	ldr	x11, [x0, #16]
   810f0:	a9074ffe 	stp	x30, x19, [sp, #112]
   810f4:	aa0803f3 	mov	x19, x8
   810f8:	b40004aa 	cbz	x10, 8118c <_ZN5alloc11collections5btree6remove269_$LT$impl$u20$alloc..collections..btree..node..Handle$LT$alloc..collections..btree..node..NodeRef$LT$alloc..collections..btree..node..marker..Mut$C$K$C$V$C$alloc..collections..btree..node..marker..LeafOrInternal$GT$$C$alloc..collections..btree..node..marker..KV$GT$$GT$18remove_kv_tracking17h8f3d84d0cbfa725eE+0xac>
   810fc:	8b0b0d28 	add	x8, x9, x11, lsl #3
   81100:	f9408d08 	ldr	x8, [x8, #280]
   81104:	f100054a 	subs	x10, x10, #0x1
   81108:	79422509 	ldrh	w9, [x8, #274]
   8110c:	540000c0 	b.eq	81124 <_ZN5alloc11collections5btree6remove269_$LT$impl$u20$alloc..collections..btree..node..Handle$LT$alloc..collections..btree..node..NodeRef$LT$alloc..collections..btree..node..marker..Mut$C$K$C$V$C$alloc..collections..btree..node..marker..LeafOrInternal$GT$$C$alloc..collections..btree..node..marker..KV$GT$$GT$18remove_kv_tracking17h8f3d84d0cbfa725eE+0x44>  // b.none
   81110:	8b090d08 	add	x8, x8, x9, lsl #3
   81114:	f9408d08 	ldr	x8, [x8, #280]
   81118:	f100054a 	subs	x10, x10, #0x1
   8111c:	79422509 	ldrh	w9, [x8, #274]
   81120:	54ffff81 	b.ne	81110 <_ZN5alloc11collections5btree6remove269_$LT$impl$u20$alloc..collections..btree..node..Handle$LT$alloc..collections..btree..node..NodeRef$LT$alloc..collections..btree..node..marker..Mut$C$K$C$V$C$alloc..collections..btree..node..marker..LeafOrInternal$GT$$C$alloc..collections..btree..node..marker..KV$GT$$GT$18remove_kv_tracking17h8f3d84d0cbfa725eE+0x30>  // b.any
   81124:	f100013f 	cmp	x9, #0x0
   81128:	d1000529 	sub	x9, x9, #0x1
   8112c:	9a8803e8 	csel	x8, xzr, x8, eq  // eq = none
   81130:	9a8903e9 	csel	x9, xzr, x9, eq  // eq = none
   81134:	9100a3e0 	add	x0, sp, #0x28
   81138:	910163e1 	add	x1, sp, #0x58
   8113c:	a905a3ff 	stp	xzr, x8, [sp, #88]
   81140:	f90037e9 	str	x9, [sp, #104]
   81144:	97ffff1b 	bl	80db0 <_ZN5alloc11collections5btree6remove259_$LT$impl$u20$alloc..collections..btree..node..Handle$LT$alloc..collections..btree..node..NodeRef$LT$alloc..collections..btree..node..marker..Mut$C$K$C$V$C$alloc..collections..btree..node..marker..Leaf$GT$$C$alloc..collections..btree..node..marker..KV$GT$$GT$14remove_leaf_kv17hbcbd10e49eab67d3E>
   81148:	a944bbec 	ldp	x12, x14, [sp, #72]
   8114c:	a942a7ed 	ldp	x13, x9, [sp, #40]
   81150:	79422588 	ldrh	w8, [x12, #274]
   81154:	a943abeb 	ldp	x11, x10, [sp, #56]
   81158:	eb0801df 	cmp	x14, x8
   8115c:	54000062 	b.cs	81168 <_ZN5alloc11collections5btree6remove269_$LT$impl$u20$alloc..collections..btree..node..Handle$LT$alloc..collections..btree..node..NodeRef$LT$alloc..collections..btree..node..marker..Mut$C$K$C$V$C$alloc..collections..btree..node..marker..LeafOrInternal$GT$$C$alloc..collections..btree..node..marker..KV$GT$$GT$18remove_kv_tracking17h8f3d84d0cbfa725eE+0x88>  // b.hs, b.nlast
   81160:	aa0c03e8 	mov	x8, x12
   81164:	14000014 	b	811b4 <_ZN5alloc11collections5btree6remove269_$LT$impl$u20$alloc..collections..btree..node..Handle$LT$alloc..collections..btree..node..NodeRef$LT$alloc..collections..btree..node..marker..Mut$C$K$C$V$C$alloc..collections..btree..node..marker..LeafOrInternal$GT$$C$alloc..collections..btree..node..marker..KV$GT$$GT$18remove_kv_tracking17h8f3d84d0cbfa725eE+0xd4>
   81168:	f9400188 	ldr	x8, [x12]
   8116c:	b4000208 	cbz	x8, 811ac <_ZN5alloc11collections5btree6remove269_$LT$impl$u20$alloc..collections..btree..node..Handle$LT$alloc..collections..btree..node..NodeRef$LT$alloc..collections..btree..node..marker..Mut$C$K$C$V$C$alloc..collections..btree..node..marker..LeafOrInternal$GT$$C$alloc..collections..btree..node..marker..KV$GT$$GT$18remove_kv_tracking17h8f3d84d0cbfa725eE+0xcc>
   81170:	7942218e 	ldrh	w14, [x12, #272]
   81174:	9100054a 	add	x10, x10, #0x1
   81178:	7942250f 	ldrh	w15, [x8, #274]
   8117c:	aa0803ec 	mov	x12, x8
   81180:	6b0f01df 	cmp	w14, w15
   81184:	54ffff22 	b.cs	81168 <_ZN5alloc11collections5btree6remove269_$LT$impl$u20$alloc..collections..btree..node..Handle$LT$alloc..collections..btree..node..NodeRef$LT$alloc..collections..btree..node..marker..Mut$C$K$C$V$C$alloc..collections..btree..node..marker..LeafOrInternal$GT$$C$alloc..collections..btree..node..marker..KV$GT$$GT$18remove_kv_tracking17h8f3d84d0cbfa725eE+0x88>  // b.hs, b.nlast
   81188:	1400000b 	b	811b4 <_ZN5alloc11collections5btree6remove269_$LT$impl$u20$alloc..collections..btree..node..Handle$LT$alloc..collections..btree..node..NodeRef$LT$alloc..collections..btree..node..marker..Mut$C$K$C$V$C$alloc..collections..btree..node..marker..LeafOrInternal$GT$$C$alloc..collections..btree..node..marker..KV$GT$$GT$18remove_kv_tracking17h8f3d84d0cbfa725eE+0xd4>
   8118c:	9100a3e1 	add	x1, sp, #0x28
   81190:	aa1303e0 	mov	x0, x19
   81194:	a902a7ff 	stp	xzr, x9, [sp, #40]
   81198:	f9001feb 	str	x11, [sp, #56]
   8119c:	97ffff05 	bl	80db0 <_ZN5alloc11collections5btree6remove259_$LT$impl$u20$alloc..collections..btree..node..Handle$LT$alloc..collections..btree..node..NodeRef$LT$alloc..collections..btree..node..marker..Mut$C$K$C$V$C$alloc..collections..btree..node..marker..Leaf$GT$$C$alloc..collections..btree..node..marker..KV$GT$$GT$14remove_leaf_kv17hbcbd10e49eab67d3E>
   811a0:	a9474ffe 	ldp	x30, x19, [sp, #112]
   811a4:	910203ff 	add	sp, sp, #0x80
   811a8:	d65f03c0 	ret
   811ac:	aa1f03ee 	mov	x14, xzr
   811b0:	aa1f03ea 	mov	x10, xzr
   811b4:	8b0e0d0f 	add	x15, x8, x14, lsl #3
   811b8:	8b0e1110 	add	x16, x8, x14, lsl #4
   811bc:	f94005ec 	ldr	x12, [x15, #8]
   811c0:	f90005ed 	str	x13, [x15, #8]
   811c4:	f940360d 	ldr	x13, [x16, #104]
   811c8:	f9000fed 	str	x13, [sp, #24]
   811cc:	f940320d 	ldr	x13, [x16, #96]
   811d0:	f9000bed 	str	x13, [sp, #16]
   811d4:	910005cd 	add	x13, x14, #0x1
   811d8:	3dc007e0 	ldr	q0, [sp, #16]
   811dc:	a9062e09 	stp	x9, x11, [x16, #96]
   811e0:	b400012a 	cbz	x10, 81204 <_ZN5alloc11collections5btree6remove269_$LT$impl$u20$alloc..collections..btree..node..Handle$LT$alloc..collections..btree..node..NodeRef$LT$alloc..collections..btree..node..marker..Mut$C$K$C$V$C$alloc..collections..btree..node..marker..LeafOrInternal$GT$$C$alloc..collections..btree..node..marker..KV$GT$$GT$18remove_kv_tracking17h8f3d84d0cbfa725eE+0x124>
   811e4:	8b0d0d08 	add	x8, x8, x13, lsl #3
   811e8:	f1000549 	subs	x9, x10, #0x1
   811ec:	f9408d08 	ldr	x8, [x8, #280]
   811f0:	54000080 	b.eq	81200 <_ZN5alloc11collections5btree6remove269_$LT$impl$u20$alloc..collections..btree..node..Handle$LT$alloc..collections..btree..node..NodeRef$LT$alloc..collections..btree..node..marker..Mut$C$K$C$V$C$alloc..collections..btree..node..marker..LeafOrInternal$GT$$C$alloc..collections..btree..node..marker..KV$GT$$GT$18remove_kv_tracking17h8f3d84d0cbfa725eE+0x120>  // b.none
   811f4:	f9408d08 	ldr	x8, [x8, #280]
   811f8:	f1000529 	subs	x9, x9, #0x1
   811fc:	54ffffc1 	b.ne	811f4 <_ZN5alloc11collections5btree6remove269_$LT$impl$u20$alloc..collections..btree..node..Handle$LT$alloc..collections..btree..node..NodeRef$LT$alloc..collections..btree..node..marker..Mut$C$K$C$V$C$alloc..collections..btree..node..marker..LeafOrInternal$GT$$C$alloc..collections..btree..node..marker..KV$GT$$GT$18remove_kv_tracking17h8f3d84d0cbfa725eE+0x114>  // b.any
   81200:	aa1f03ed 	mov	x13, xzr
   81204:	f900026c 	str	x12, [x19]
   81208:	3d8003e0 	str	q0, [sp]
   8120c:	f94007e9 	ldr	x9, [sp, #8]
   81210:	f9000a69 	str	x9, [x19, #16]
   81214:	f94003e9 	ldr	x9, [sp]
   81218:	a901a27f 	stp	xzr, x8, [x19, #24]
   8121c:	f900166d 	str	x13, [x19, #40]
   81220:	f9000669 	str	x9, [x19, #8]
   81224:	a9474ffe 	ldp	x30, x19, [sp, #112]
   81228:	910203ff 	add	sp, sp, #0x80
   8122c:	d65f03c0 	ret

0000000000081230 <_ZN5alloc11collections5btree8navigate263_$LT$impl$u20$alloc..collections..btree..node..Handle$LT$alloc..collections..btree..node..NodeRef$LT$alloc..collections..btree..node..marker..Immut$C$K$C$V$C$alloc..collections..btree..node..marker..Leaf$GT$$C$alloc..collections..btree..node..marker..Edge$GT$$GT$14next_unchecked17hf78cdbfd6a84c368E>:
   81230:	a940a40c 	ldp	x12, x9, [x0, #8]
   81234:	aa0003e8 	mov	x8, x0
   81238:	f940000d 	ldr	x13, [x0]
   8123c:	7942258a 	ldrh	w10, [x12, #274]
   81240:	eb0a013f 	cmp	x9, x10
   81244:	54000062 	b.cs	81250 <_ZN5alloc11collections5btree8navigate263_$LT$impl$u20$alloc..collections..btree..node..Handle$LT$alloc..collections..btree..node..NodeRef$LT$alloc..collections..btree..node..marker..Immut$C$K$C$V$C$alloc..collections..btree..node..marker..Leaf$GT$$C$alloc..collections..btree..node..marker..Edge$GT$$GT$14next_unchecked17hf78cdbfd6a84c368E+0x20>  // b.hs, b.nlast
   81248:	aa0c03ea 	mov	x10, x12
   8124c:	1400000a 	b	81274 <_ZN5alloc11collections5btree8navigate263_$LT$impl$u20$alloc..collections..btree..node..Handle$LT$alloc..collections..btree..node..NodeRef$LT$alloc..collections..btree..node..marker..Immut$C$K$C$V$C$alloc..collections..btree..node..marker..Leaf$GT$$C$alloc..collections..btree..node..marker..Edge$GT$$GT$14next_unchecked17hf78cdbfd6a84c368E+0x44>
   81250:	5280002b 	mov	w11, #0x1                   	// #1
   81254:	f940018a 	ldr	x10, [x12]
   81258:	b400024a 	cbz	x10, 812a0 <_ZN5alloc11collections5btree8navigate263_$LT$impl$u20$alloc..collections..btree..node..Handle$LT$alloc..collections..btree..node..NodeRef$LT$alloc..collections..btree..node..marker..Immut$C$K$C$V$C$alloc..collections..btree..node..marker..Leaf$GT$$C$alloc..collections..btree..node..marker..Edge$GT$$GT$14next_unchecked17hf78cdbfd6a84c368E+0x70>
   8125c:	79422189 	ldrh	w9, [x12, #272]
   81260:	910005ad 	add	x13, x13, #0x1
   81264:	7942254e 	ldrh	w14, [x10, #274]
   81268:	aa0a03ec 	mov	x12, x10
   8126c:	6b0e013f 	cmp	w9, w14
   81270:	54ffff22 	b.cs	81254 <_ZN5alloc11collections5btree8navigate263_$LT$impl$u20$alloc..collections..btree..node..Handle$LT$alloc..collections..btree..node..NodeRef$LT$alloc..collections..btree..node..marker..Immut$C$K$C$V$C$alloc..collections..btree..node..marker..Leaf$GT$$C$alloc..collections..btree..node..marker..Edge$GT$$GT$14next_unchecked17hf78cdbfd6a84c368E+0x24>  // b.hs, b.nlast
   81274:	9100052b 	add	x11, x9, #0x1
   81278:	b40001ad 	cbz	x13, 812ac <_ZN5alloc11collections5btree8navigate263_$LT$impl$u20$alloc..collections..btree..node..Handle$LT$alloc..collections..btree..node..NodeRef$LT$alloc..collections..btree..node..marker..Immut$C$K$C$V$C$alloc..collections..btree..node..marker..Leaf$GT$$C$alloc..collections..btree..node..marker..Edge$GT$$GT$14next_unchecked17hf78cdbfd6a84c368E+0x7c>
   8127c:	8b0b0d4b 	add	x11, x10, x11, lsl #3
   81280:	f9408d6c 	ldr	x12, [x11, #280]
   81284:	f10005ab 	subs	x11, x13, #0x1
   81288:	54000080 	b.eq	81298 <_ZN5alloc11collections5btree8navigate263_$LT$impl$u20$alloc..collections..btree..node..Handle$LT$alloc..collections..btree..node..NodeRef$LT$alloc..collections..btree..node..marker..Immut$C$K$C$V$C$alloc..collections..btree..node..marker..Leaf$GT$$C$alloc..collections..btree..node..marker..Edge$GT$$GT$14next_unchecked17hf78cdbfd6a84c368E+0x68>  // b.none
   8128c:	f9408d8c 	ldr	x12, [x12, #280]
   81290:	f100056b 	subs	x11, x11, #0x1
   81294:	54ffffc1 	b.ne	8128c <_ZN5alloc11collections5btree8navigate263_$LT$impl$u20$alloc..collections..btree..node..Handle$LT$alloc..collections..btree..node..NodeRef$LT$alloc..collections..btree..node..marker..Immut$C$K$C$V$C$alloc..collections..btree..node..marker..Leaf$GT$$C$alloc..collections..btree..node..marker..Edge$GT$$GT$14next_unchecked17hf78cdbfd6a84c368E+0x5c>  // b.any
   81298:	aa1f03eb 	mov	x11, xzr
   8129c:	14000005 	b	812b0 <_ZN5alloc11collections5btree8navigate263_$LT$impl$u20$alloc..collections..btree..node..Handle$LT$alloc..collections..btree..node..NodeRef$LT$alloc..collections..btree..node..marker..Immut$C$K$C$V$C$alloc..collections..btree..node..marker..Leaf$GT$$C$alloc..collections..btree..node..marker..Edge$GT$$GT$14next_unchecked17hf78cdbfd6a84c368E+0x80>
   812a0:	aa1f03e9 	mov	x9, xzr
   812a4:	aa1f03ec 	mov	x12, xzr
   812a8:	14000002 	b	812b0 <_ZN5alloc11collections5btree8navigate263_$LT$impl$u20$alloc..collections..btree..node..Handle$LT$alloc..collections..btree..node..NodeRef$LT$alloc..collections..btree..node..marker..Immut$C$K$C$V$C$alloc..collections..btree..node..marker..Leaf$GT$$C$alloc..collections..btree..node..marker..Edge$GT$$GT$14next_unchecked17hf78cdbfd6a84c368E+0x80>
   812ac:	aa0a03ec 	mov	x12, x10
   812b0:	8b090d4d 	add	x13, x10, x9, lsl #3
   812b4:	8b091149 	add	x9, x10, x9, lsl #4
   812b8:	910021a0 	add	x0, x13, #0x8
   812bc:	91018121 	add	x1, x9, #0x60
   812c0:	a900311f 	stp	xzr, x12, [x8]
   812c4:	f900090b 	str	x11, [x8, #16]
   812c8:	d65f03c0 	ret
   812cc:	00000000 	.inst	0x00000000 ; undefined

00000000000812d0 <_ZN5alloc11collections5btree3map21BTreeMap$LT$K$C$V$GT$6insert17h6ae9863a11b33902E>:
   812d0:	d10543ff 	sub	sp, sp, #0x150
   812d4:	a9125ffe 	stp	x30, x23, [sp, #288]
   812d8:	a91357f6 	stp	x22, x21, [sp, #304]
   812dc:	aa0003f5 	mov	x21, x0
   812e0:	a9144ff4 	stp	x20, x19, [sp, #320]
   812e4:	aa0303f3 	mov	x19, x3
   812e8:	f9400417 	ldr	x23, [x0, #8]
   812ec:	aa0203f4 	mov	x20, x2
   812f0:	aa0103f6 	mov	x22, x1
   812f4:	f9008bfd 	str	x29, [sp, #272]
   812f8:	b4000077 	cbz	x23, 81304 <_ZN5alloc11collections5btree3map21BTreeMap$LT$K$C$V$GT$6insert17h6ae9863a11b33902E+0x34>
   812fc:	f94002a8 	ldr	x8, [x21]
   81300:	1400000e 	b	81338 <_ZN5alloc11collections5btree3map21BTreeMap$LT$K$C$V$GT$6insert17h6ae9863a11b33902E+0x68>
   81304:	52802300 	mov	w0, #0x118                 	// #280
   81308:	52800101 	mov	w1, #0x8                   	// #8
   8130c:	94000823 	bl	83398 <__rust_alloc>
   81310:	b4000640 	cbz	x0, 813d8 <_ZN5alloc11collections5btree3map21BTreeMap$LT$K$C$V$GT$6insert17h6ae9863a11b33902E+0x108>
   81314:	aa0003f7 	mov	x23, x0
   81318:	91002000 	add	x0, x0, #0x8
   8131c:	52802142 	mov	w2, #0x10a                 	// #266
   81320:	910003e1 	mov	x1, sp
   81324:	f90002ff 	str	xzr, [x23]
   81328:	940020dc 	bl	89698 <memcpy>
   8132c:	aa1f03e8 	mov	x8, xzr
   81330:	790226ff 	strh	wzr, [x23, #274]
   81334:	a9005ebf 	stp	xzr, x23, [x21]
   81338:	794226e9 	ldrh	w9, [x23, #274]
   8133c:	aa1f03eb 	mov	x11, xzr
   81340:	910162ea 	add	x10, x23, #0x58
   81344:	eb0b013f 	cmp	x9, x11
   81348:	540001a0 	b.eq	8137c <_ZN5alloc11collections5btree3map21BTreeMap$LT$K$C$V$GT$6insert17h6ae9863a11b33902E+0xac>  // b.none
   8134c:	8b0b0eec 	add	x12, x23, x11, lsl #3
   81350:	9100056b 	add	x11, x11, #0x1
   81354:	f940058c 	ldr	x12, [x12, #8]
   81358:	eb16019f 	cmp	x12, x22
   8135c:	1a9f07ec 	cset	w12, ne  // ne = any
   81360:	da9f918c 	csinv	x12, x12, xzr, ls  // ls = plast
   81364:	b100059f 	cmn	x12, #0x1
   81368:	54000080 	b.eq	81378 <_ZN5alloc11collections5btree3map21BTreeMap$LT$K$C$V$GT$6insert17h6ae9863a11b33902E+0xa8>  // b.none
   8136c:	9100414a 	add	x10, x10, #0x10
   81370:	b5fffeac 	cbnz	x12, 81344 <_ZN5alloc11collections5btree3map21BTreeMap$LT$K$C$V$GT$6insert17h6ae9863a11b33902E+0x74>
   81374:	14000007 	b	81390 <_ZN5alloc11collections5btree3map21BTreeMap$LT$K$C$V$GT$6insert17h6ae9863a11b33902E+0xc0>
   81378:	d1000569 	sub	x9, x11, #0x1
   8137c:	b40001a8 	cbz	x8, 813b0 <_ZN5alloc11collections5btree3map21BTreeMap$LT$K$C$V$GT$6insert17h6ae9863a11b33902E+0xe0>
   81380:	8b090ee9 	add	x9, x23, x9, lsl #3
   81384:	d1000508 	sub	x8, x8, #0x1
   81388:	f9408d37 	ldr	x23, [x9, #280]
   8138c:	17ffffeb 	b	81338 <_ZN5alloc11collections5btree3map21BTreeMap$LT$K$C$V$GT$6insert17h6ae9863a11b33902E+0x68>
   81390:	a97f8540 	ldp	x0, x1, [x10, #-8]
   81394:	a93fcd54 	stp	x20, x19, [x10, #-8]
   81398:	a9544ff4 	ldp	x20, x19, [sp, #320]
   8139c:	a95357f6 	ldp	x22, x21, [sp, #304]
   813a0:	a9525ffe 	ldp	x30, x23, [sp, #288]
   813a4:	f9408bfd 	ldr	x29, [sp, #272]
   813a8:	910543ff 	add	sp, sp, #0x150
   813ac:	d65f03c0 	ret
   813b0:	910003e0 	mov	x0, sp
   813b4:	aa1403e1 	mov	x1, x20
   813b8:	aa1303e2 	mov	x2, x19
   813bc:	a9007ff6 	stp	x22, xzr, [sp]
   813c0:	a90127f7 	stp	x23, x9, [sp, #16]
   813c4:	f90013f5 	str	x21, [sp, #32]
   813c8:	94000154 	bl	81918 <_ZN5alloc11collections5btree3map5entry24VacantEntry$LT$K$C$V$GT$6insert17h53989cacc447453eE>
   813cc:	aa1f03e0 	mov	x0, xzr
   813d0:	aa1f03e1 	mov	x1, xzr
   813d4:	17fffff1 	b	81398 <_ZN5alloc11collections5btree3map21BTreeMap$LT$K$C$V$GT$6insert17h6ae9863a11b33902E+0xc8>
   813d8:	52802300 	mov	w0, #0x118                 	// #280
   813dc:	52800101 	mov	w1, #0x8                   	// #8
   813e0:	94002e3e 	bl	8ccd8 <_ZN5alloc5alloc18handle_alloc_error17h4609a7d668d8bcf9E>
   813e4:	d4200020 	brk	#0x1

00000000000813e8 <_ZN5alloc11collections5btree3map21BTreeMap$LT$K$C$V$GT$6remove17ha0e8cd222bf88e74E>:
   813e8:	d101c3ff 	sub	sp, sp, #0x70
   813ec:	a90557fe 	stp	x30, x21, [sp, #80]
   813f0:	a9064ff4 	stp	x20, x19, [sp, #96]
   813f4:	f9400408 	ldr	x8, [x0, #8]
   813f8:	b4000668 	cbz	x8, 814c4 <_ZN5alloc11collections5btree3map21BTreeMap$LT$K$C$V$GT$6remove17ha0e8cd222bf88e74E+0xdc>
   813fc:	f9400009 	ldr	x9, [x0]
   81400:	aa0003f3 	mov	x19, x0
   81404:	f940002a 	ldr	x10, [x1]
   81408:	7942250b 	ldrh	w11, [x8, #274]
   8140c:	aa1f03ed 	mov	x13, xzr
   81410:	eb0d017f 	cmp	x11, x13
   81414:	540001a0 	b.eq	81448 <_ZN5alloc11collections5btree3map21BTreeMap$LT$K$C$V$GT$6remove17ha0e8cd222bf88e74E+0x60>  // b.none
   81418:	8b0d0d0c 	add	x12, x8, x13, lsl #3
   8141c:	f940058c 	ldr	x12, [x12, #8]
   81420:	eb0a019f 	cmp	x12, x10
   81424:	910005ac 	add	x12, x13, #0x1
   81428:	1a9f07ee 	cset	w14, ne  // ne = any
   8142c:	da9f91ce 	csinv	x14, x14, xzr, ls  // ls = plast
   81430:	b10005df 	cmn	x14, #0x1
   81434:	54000080 	b.eq	81444 <_ZN5alloc11collections5btree3map21BTreeMap$LT$K$C$V$GT$6remove17ha0e8cd222bf88e74E+0x5c>  // b.none
   81438:	aa0c03ed 	mov	x13, x12
   8143c:	b5fffeae 	cbnz	x14, 81410 <_ZN5alloc11collections5btree3map21BTreeMap$LT$K$C$V$GT$6remove17ha0e8cd222bf88e74E+0x28>
   81440:	14000007 	b	8145c <_ZN5alloc11collections5btree3map21BTreeMap$LT$K$C$V$GT$6remove17ha0e8cd222bf88e74E+0x74>
   81444:	d100058b 	sub	x11, x12, #0x1
   81448:	b40003e9 	cbz	x9, 814c4 <_ZN5alloc11collections5btree3map21BTreeMap$LT$K$C$V$GT$6remove17ha0e8cd222bf88e74E+0xdc>
   8144c:	8b0b0d08 	add	x8, x8, x11, lsl #3
   81450:	d1000529 	sub	x9, x9, #0x1
   81454:	f9408d08 	ldr	x8, [x8, #280]
   81458:	17ffffec 	b	81408 <_ZN5alloc11collections5btree3map21BTreeMap$LT$K$C$V$GT$6remove17ha0e8cd222bf88e74E+0x20>
   8145c:	d100058a 	sub	x10, x12, #0x1
   81460:	a903a3e9 	stp	x9, x8, [sp, #56]
   81464:	910023e8 	add	x8, sp, #0x8
   81468:	9100e3e0 	add	x0, sp, #0x38
   8146c:	910013e1 	add	x1, sp, #0x4
   81470:	390013ff 	strb	wzr, [sp, #4]
   81474:	f90027ea 	str	x10, [sp, #72]
   81478:	97ffff1a 	bl	810e0 <_ZN5alloc11collections5btree6remove269_$LT$impl$u20$alloc..collections..btree..node..Handle$LT$alloc..collections..btree..node..NodeRef$LT$alloc..collections..btree..node..marker..Mut$C$K$C$V$C$alloc..collections..btree..node..marker..LeafOrInternal$GT$$C$alloc..collections..btree..node..marker..KV$GT$$GT$18remove_kv_tracking17h8f3d84d0cbfa725eE>
   8147c:	f9400a68 	ldr	x8, [x19, #16]
   81480:	394013e9 	ldrb	w9, [sp, #4]
   81484:	a94153f5 	ldp	x21, x20, [sp, #16]
   81488:	d1000508 	sub	x8, x8, #0x1
   8148c:	f9000a68 	str	x8, [x19, #16]
   81490:	340001e9 	cbz	w9, 814cc <_ZN5alloc11collections5btree3map21BTreeMap$LT$K$C$V$GT$6remove17ha0e8cd222bf88e74E+0xe4>
   81494:	f9400660 	ldr	x0, [x19, #8]
   81498:	b4000280 	cbz	x0, 814e8 <_ZN5alloc11collections5btree3map21BTreeMap$LT$K$C$V$GT$6remove17ha0e8cd222bf88e74E+0x100>
   8149c:	f9400268 	ldr	x8, [x19]
   814a0:	b4000328 	cbz	x8, 81504 <_ZN5alloc11collections5btree3map21BTreeMap$LT$K$C$V$GT$6remove17ha0e8cd222bf88e74E+0x11c>
   814a4:	f9408c09 	ldr	x9, [x0, #280]
   814a8:	d1000508 	sub	x8, x8, #0x1
   814ac:	52802f01 	mov	w1, #0x178                 	// #376
   814b0:	52800102 	mov	w2, #0x8                   	// #8
   814b4:	a9002668 	stp	x8, x9, [x19]
   814b8:	f900013f 	str	xzr, [x9]
   814bc:	940007b9 	bl	833a0 <__rust_dealloc>
   814c0:	14000003 	b	814cc <_ZN5alloc11collections5btree3map21BTreeMap$LT$K$C$V$GT$6remove17ha0e8cd222bf88e74E+0xe4>
   814c4:	aa1f03f5 	mov	x21, xzr
   814c8:	aa1f03f4 	mov	x20, xzr
   814cc:	f100029f 	cmp	x20, #0x0
   814d0:	aa1403e1 	mov	x1, x20
   814d4:	9a9503e0 	csel	x0, xzr, x21, eq  // eq = none
   814d8:	a9464ff4 	ldp	x20, x19, [sp, #96]
   814dc:	a94557fe 	ldp	x30, x21, [sp, #80]
   814e0:	9101c3ff 	add	sp, sp, #0x70
   814e4:	d65f03c0 	ret
   814e8:	f0000080 	adrp	x0, 94000 <anon.98868c38ea5667d973ab3dd5b7fa8ab3.16.llvm.5513183134649085050+0x30>
   814ec:	d00000e2 	adrp	x2, 9f000 <_ZN17ruspiro_allocator6memory10HEAP_START17h21640eff129da783E.llvm.11358094369807046016>
   814f0:	910ac800 	add	x0, x0, #0x2b2
   814f4:	52800561 	mov	w1, #0x2b                  	// #43
   814f8:	910e2042 	add	x2, x2, #0x388
   814fc:	94003975 	bl	8fad0 <_ZN4core9panicking5panic17h546310d45640065bE>
   81500:	d4200020 	brk	#0x1
   81504:	d0000080 	adrp	x0, 93000 <_ZN17ruspiro_interrupt17interrupt_handler17hba3161a75e7834cbE+0x208>
   81508:	d00000e2 	adrp	x2, 9f000 <_ZN17ruspiro_allocator6memory10HEAP_START17h21640eff129da783E.llvm.11358094369807046016>
   8150c:	913f4000 	add	x0, x0, #0xfd0
   81510:	52800421 	mov	w1, #0x21                  	// #33
   81514:	9109a042 	add	x2, x2, #0x268
   81518:	9400396e 	bl	8fad0 <_ZN4core9panicking5panic17h546310d45640065bE>
   8151c:	d4200020 	brk	#0x1

0000000000081520 <_ZN95_$LT$alloc..collections..btree..map..BTreeMap$LT$K$C$V$GT$$u20$as$u20$core..ops..drop..Drop$GT$4drop17he309627b178371e6E>:
   81520:	d10203ff 	sub	sp, sp, #0x80
   81524:	a9055ffe 	stp	x30, x23, [sp, #80]
   81528:	a90657f6 	stp	x22, x21, [sp, #96]
   8152c:	a9074ff4 	stp	x20, x19, [sp, #112]
   81530:	f9400401 	ldr	x1, [x0, #8]
   81534:	b4000801 	cbz	x1, 81634 <_ZN95_$LT$alloc..collections..btree..map..BTreeMap$LT$K$C$V$GT$$u20$as$u20$core..ops..drop..Drop$GT$4drop17he309627b178371e6E+0x114>
   81538:	f9400814 	ldr	x20, [x0, #16]
   8153c:	910023e8 	add	x8, sp, #0x8
   81540:	f9400000 	ldr	x0, [x0]
   81544:	aa0103e3 	mov	x3, x1
   81548:	aa0003e2 	mov	x2, x0
   8154c:	94000337 	bl	82228 <_ZN5alloc11collections5btree8navigate10full_range17hb980b5ffbaf96c4aE>
   81550:	a940cfe8 	ldp	x8, x19, [sp, #8]
   81554:	b40003d4 	cbz	x20, 815cc <_ZN95_$LT$alloc..collections..btree..map..BTreeMap$LT$K$C$V$GT$$u20$as$u20$core..ops..drop..Drop$GT$4drop17he309627b178371e6E+0xac>
   81558:	f9400ff5 	ldr	x21, [sp, #24]
   8155c:	b4000773 	cbz	x19, 81648 <_ZN95_$LT$alloc..collections..btree..map..BTreeMap$LT$K$C$V$GT$$u20$as$u20$core..ops..drop..Drop$GT$4drop17he309627b178371e6E+0x128>
   81560:	a900cfe8 	stp	x8, x19, [sp, #8]
   81564:	9100e3e8 	add	x8, sp, #0x38
   81568:	910023e0 	add	x0, sp, #0x8
   8156c:	f9000ff5 	str	x21, [sp, #24]
   81570:	94000358 	bl	822d0 <_ZN5alloc11collections5btree8navigate25next_kv_unchecked_dealloc17h4bde62be500b4bebE>
   81574:	a9442bf3 	ldp	x19, x10, [sp, #64]
   81578:	f9401fe9 	ldr	x9, [sp, #56]
   8157c:	8b0a1268 	add	x8, x19, x10, lsl #4
   81580:	91000555 	add	x21, x10, #0x1
   81584:	a9462100 	ldp	x0, x8, [x8, #96]
   81588:	b4000129 	cbz	x9, 815ac <_ZN95_$LT$alloc..collections..btree..map..BTreeMap$LT$K$C$V$GT$$u20$as$u20$core..ops..drop..Drop$GT$4drop17he309627b178371e6E+0x8c>
   8158c:	8b150e6a 	add	x10, x19, x21, lsl #3
   81590:	f9408d53 	ldr	x19, [x10, #280]
   81594:	f1000529 	subs	x9, x9, #0x1
   81598:	54000080 	b.eq	815a8 <_ZN95_$LT$alloc..collections..btree..map..BTreeMap$LT$K$C$V$GT$$u20$as$u20$core..ops..drop..Drop$GT$4drop17he309627b178371e6E+0x88>  // b.none
   8159c:	f9408e73 	ldr	x19, [x19, #280]
   815a0:	f1000529 	subs	x9, x9, #0x1
   815a4:	54ffffc1 	b.ne	8159c <_ZN95_$LT$alloc..collections..btree..map..BTreeMap$LT$K$C$V$GT$$u20$as$u20$core..ops..drop..Drop$GT$4drop17he309627b178371e6E+0x7c>  // b.any
   815a8:	aa1f03f5 	mov	x21, xzr
   815ac:	b4000168 	cbz	x8, 815d8 <_ZN95_$LT$alloc..collections..btree..map..BTreeMap$LT$K$C$V$GT$$u20$as$u20$core..ops..drop..Drop$GT$4drop17he309627b178371e6E+0xb8>
   815b0:	f9400d08 	ldr	x8, [x8, #24]
   815b4:	d1000694 	sub	x20, x20, #0x1
   815b8:	d63f0100 	blr	x8
   815bc:	aa1f03e8 	mov	x8, xzr
   815c0:	aa1f03f6 	mov	x22, xzr
   815c4:	b5fffcd4 	cbnz	x20, 8155c <_ZN95_$LT$alloc..collections..btree..map..BTreeMap$LT$K$C$V$GT$$u20$as$u20$core..ops..drop..Drop$GT$4drop17he309627b178371e6E+0x3c>
   815c8:	14000002 	b	815d0 <_ZN95_$LT$alloc..collections..btree..map..BTreeMap$LT$K$C$V$GT$$u20$as$u20$core..ops..drop..Drop$GT$4drop17he309627b178371e6E+0xb0>
   815cc:	aa0803f6 	mov	x22, x8
   815d0:	b5000093 	cbnz	x19, 815e0 <_ZN95_$LT$alloc..collections..btree..map..BTreeMap$LT$K$C$V$GT$$u20$as$u20$core..ops..drop..Drop$GT$4drop17he309627b178371e6E+0xc0>
   815d4:	14000018 	b	81634 <_ZN95_$LT$alloc..collections..btree..map..BTreeMap$LT$K$C$V$GT$$u20$as$u20$core..ops..drop..Drop$GT$4drop17he309627b178371e6E+0x114>
   815d8:	aa1f03f6 	mov	x22, xzr
   815dc:	b40002d3 	cbz	x19, 81634 <_ZN95_$LT$alloc..collections..btree..map..BTreeMap$LT$K$C$V$GT$$u20$as$u20$core..ops..drop..Drop$GT$4drop17he309627b178371e6E+0x114>
   815e0:	f10002df 	cmp	x22, #0x0
   815e4:	52802f08 	mov	w8, #0x178                 	// #376
   815e8:	52802309 	mov	w9, #0x118                 	// #280
   815ec:	f9400274 	ldr	x20, [x19]
   815f0:	9a880121 	csel	x1, x9, x8, eq  // eq = none
   815f4:	aa1303e0 	mov	x0, x19
   815f8:	52800102 	mov	w2, #0x8                   	// #8
   815fc:	94000769 	bl	833a0 <__rust_dealloc>
   81600:	b40001b4 	cbz	x20, 81634 <_ZN95_$LT$alloc..collections..btree..map..BTreeMap$LT$K$C$V$GT$$u20$as$u20$core..ops..drop..Drop$GT$4drop17he309627b178371e6E+0x114>
   81604:	910006d3 	add	x19, x22, #0x1
   81608:	52802f15 	mov	w21, #0x178                 	// #376
   8160c:	52802316 	mov	w22, #0x118                 	// #280
   81610:	f100027f 	cmp	x19, #0x0
   81614:	f9400297 	ldr	x23, [x20]
   81618:	9a9502c1 	csel	x1, x22, x21, eq  // eq = none
   8161c:	aa1403e0 	mov	x0, x20
   81620:	52800102 	mov	w2, #0x8                   	// #8
   81624:	9400075f 	bl	833a0 <__rust_dealloc>
   81628:	91000673 	add	x19, x19, #0x1
   8162c:	aa1703f4 	mov	x20, x23
   81630:	b5ffff17 	cbnz	x23, 81610 <_ZN95_$LT$alloc..collections..btree..map..BTreeMap$LT$K$C$V$GT$$u20$as$u20$core..ops..drop..Drop$GT$4drop17he309627b178371e6E+0xf0>
   81634:	a9474ff4 	ldp	x20, x19, [sp, #112]
   81638:	a94657f6 	ldp	x22, x21, [sp, #96]
   8163c:	a9455ffe 	ldp	x30, x23, [sp, #80]
   81640:	910203ff 	add	sp, sp, #0x80
   81644:	d65f03c0 	ret
   81648:	f0000080 	adrp	x0, 94000 <anon.98868c38ea5667d973ab3dd5b7fa8ab3.16.llvm.5513183134649085050+0x30>
   8164c:	d00000e2 	adrp	x2, 9f000 <_ZN17ruspiro_allocator6memory10HEAP_START17h21640eff129da783E.llvm.11358094369807046016>
   81650:	91060c00 	add	x0, x0, #0x183
   81654:	52800561 	mov	w1, #0x2b                  	// #43
   81658:	910be042 	add	x2, x2, #0x2f8
   8165c:	9400391d 	bl	8fad0 <_ZN4core9panicking5panic17h546310d45640065bE>
   81660:	d4200020 	brk	#0x1
   81664:	00000000 	.inst	0x00000000 ; undefined

0000000000081668 <_ZN99_$LT$ruspiro_lock..async..asyncmutex..AsyncMutexGuard$LT$T$GT$$u20$as$u20$core..ops..drop..Drop$GT$4drop17hf2ee4ba6f212bfe9E>:
   81668:	d10303ff 	sub	sp, sp, #0xc0
   8166c:	a90a57fe 	stp	x30, x21, [sp, #160]
   81670:	52800028 	mov	w8, #0x1                   	// #1
   81674:	a90b4ff4 	stp	x20, x19, [sp, #176]
   81678:	f9400413 	ldr	x19, [x0, #8]
   8167c:	91004275 	add	x21, x19, #0x10
   81680:	085ffea9 	ldaxrb	w9, [x21]
   81684:	080a7ea8 	stxrb	w10, w8, [x21]
   81688:	35ffffca 	cbnz	w10, 81680 <_ZN99_$LT$ruspiro_lock..async..asyncmutex..AsyncMutexGuard$LT$T$GT$$u20$as$u20$core..ops..drop..Drop$GT$4drop17hf2ee4ba6f212bfe9E+0x18>
   8168c:	340000e9 	cbz	w9, 816a8 <_ZN99_$LT$ruspiro_lock..async..asyncmutex..AsyncMutexGuard$LT$T$GT$$u20$as$u20$core..ops..drop..Drop$GT$4drop17hf2ee4ba6f212bfe9E+0x40>
   81690:	52800028 	mov	w8, #0x1                   	// #1
   81694:	d503205f 	wfe
   81698:	085ffea9 	ldaxrb	w9, [x21]
   8169c:	080a7ea8 	stxrb	w10, w8, [x21]
   816a0:	35ffffca 	cbnz	w10, 81698 <_ZN99_$LT$ruspiro_lock..async..asyncmutex..AsyncMutexGuard$LT$T$GT$$u20$as$u20$core..ops..drop..Drop$GT$4drop17hf2ee4ba6f212bfe9E+0x30>
   816a4:	35ffff89 	cbnz	w9, 81694 <_ZN99_$LT$ruspiro_lock..async..asyncmutex..AsyncMutexGuard$LT$T$GT$$u20$as$u20$core..ops..drop..Drop$GT$4drop17hf2ee4ba6f212bfe9E+0x2c>
   816a8:	d5033fbf 	dmb	sy
   816ac:	f9401261 	ldr	x1, [x19, #32]
   816b0:	b40002e1 	cbz	x1, 8170c <_ZN99_$LT$ruspiro_lock..async..asyncmutex..AsyncMutexGuard$LT$T$GT$$u20$as$u20$core..ops..drop..Drop$GT$4drop17hf2ee4ba6f212bfe9E+0xa4>
   816b4:	f9400e60 	ldr	x0, [x19, #24]
   816b8:	910003e8 	mov	x8, sp
   816bc:	aa0103e3 	mov	x3, x1
   816c0:	aa0003e2 	mov	x2, x0
   816c4:	940002d9 	bl	82228 <_ZN5alloc11collections5btree8navigate10full_range17hb980b5ffbaf96c4aE>
   816c8:	a940a3e9 	ldp	x9, x8, [sp, #8]
   816cc:	910103e0 	add	x0, sp, #0x40
   816d0:	910003e1 	mov	x1, sp
   816d4:	f94003ea 	ldr	x10, [sp]
   816d8:	52800602 	mov	w2, #0x30                  	// #48
   816dc:	a941b3eb 	ldp	x11, x12, [sp, #24]
   816e0:	f94017ed 	ldr	x13, [sp, #40]
   816e4:	a907a3e9 	stp	x9, x8, [sp, #120]
   816e8:	a908b3eb 	stp	x11, x12, [sp, #136]
   816ec:	a90027ea 	stp	x10, x9, [sp]
   816f0:	a90237ec 	stp	x12, x13, [sp, #32]
   816f4:	f9401674 	ldr	x20, [x19, #40]
   816f8:	f9003bea 	str	x10, [sp, #112]
   816fc:	f9004fed 	str	x13, [sp, #152]
   81700:	a9012fe8 	stp	x8, x11, [sp, #16]
   81704:	94001fe5 	bl	89698 <memcpy>
   81708:	14000005 	b	8171c <_ZN99_$LT$ruspiro_lock..async..asyncmutex..AsyncMutexGuard$LT$T$GT$$u20$as$u20$core..ops..drop..Drop$GT$4drop17hf2ee4ba6f212bfe9E+0xb4>
   8170c:	6f00e400 	movi	v0.2d, #0x0
   81710:	aa1f03f4 	mov	x20, xzr
   81714:	ad0283e0 	stp	q0, q0, [sp, #80]
   81718:	3d8013e0 	str	q0, [sp, #64]
   8171c:	ad4207e0 	ldp	q0, q1, [sp, #64]
   81720:	3dc01be2 	ldr	q2, [sp, #96]
   81724:	f9001bf4 	str	x20, [sp, #48]
   81728:	ad0007e0 	stp	q0, q1, [sp]
   8172c:	3d800be2 	str	q2, [sp, #32]
   81730:	b40002d4 	cbz	x20, 81788 <_ZN99_$LT$ruspiro_lock..async..asyncmutex..AsyncMutexGuard$LT$T$GT$$u20$as$u20$core..ops..drop..Drop$GT$4drop17hf2ee4ba6f212bfe9E+0x120>
   81734:	f94007e8 	ldr	x8, [sp, #8]
   81738:	d1000689 	sub	x9, x20, #0x1
   8173c:	f9001be9 	str	x9, [sp, #48]
   81740:	f100011f 	cmp	x8, #0x0
   81744:	910003e8 	mov	x8, sp
   81748:	9a8803e0 	csel	x0, xzr, x8, eq  // eq = none
   8174c:	97fffeb9 	bl	81230 <_ZN5alloc11collections5btree8navigate263_$LT$impl$u20$alloc..collections..btree..node..Handle$LT$alloc..collections..btree..node..NodeRef$LT$alloc..collections..btree..node..marker..Immut$C$K$C$V$C$alloc..collections..btree..node..marker..Leaf$GT$$C$alloc..collections..btree..node..marker..Edge$GT$$GT$14next_unchecked17hf78cdbfd6a84c368E>
   81750:	b40001c0 	cbz	x0, 81788 <_ZN99_$LT$ruspiro_lock..async..asyncmutex..AsyncMutexGuard$LT$T$GT$$u20$as$u20$core..ops..drop..Drop$GT$4drop17hf2ee4ba6f212bfe9E+0x120>
   81754:	f9400008 	ldr	x8, [x0]
   81758:	91006260 	add	x0, x19, #0x18
   8175c:	910103e1 	add	x1, sp, #0x40
   81760:	f90023e8 	str	x8, [sp, #64]
   81764:	97ffff21 	bl	813e8 <_ZN5alloc11collections5btree3map21BTreeMap$LT$K$C$V$GT$6remove17ha0e8cd222bf88e74E>
   81768:	b4000201 	cbz	x1, 817a8 <_ZN99_$LT$ruspiro_lock..async..asyncmutex..AsyncMutexGuard$LT$T$GT$$u20$as$u20$core..ops..drop..Drop$GT$4drop17hf2ee4ba6f212bfe9E+0x140>
   8176c:	f9400828 	ldr	x8, [x1, #16]
   81770:	aa0103f4 	mov	x20, x1
   81774:	aa0003f3 	mov	x19, x0
   81778:	d63f0100 	blr	x8
   8177c:	f9400e88 	ldr	x8, [x20, #24]
   81780:	aa1303e0 	mov	x0, x19
   81784:	d63f0100 	blr	x8
   81788:	089ffebf 	stlrb	wzr, [x21]
   8178c:	d5033fbf 	dmb	sy
   81790:	d5033f9f 	dsb	sy
   81794:	d503209f 	sev
   81798:	a94b4ff4 	ldp	x20, x19, [sp, #176]
   8179c:	a94a57fe 	ldp	x30, x21, [sp, #160]
   817a0:	910303ff 	add	sp, sp, #0xc0
   817a4:	d65f03c0 	ret
   817a8:	f0000080 	adrp	x0, 94000 <anon.98868c38ea5667d973ab3dd5b7fa8ab3.16.llvm.5513183134649085050+0x30>
   817ac:	d00000e2 	adrp	x2, 9f000 <_ZN17ruspiro_allocator6memory10HEAP_START17h21640eff129da783E.llvm.11358094369807046016>
   817b0:	9106b800 	add	x0, x0, #0x1ae
   817b4:	52800421 	mov	w1, #0x21                  	// #33
   817b8:	910c4042 	add	x2, x2, #0x310
   817bc:	940034bd 	bl	8eab0 <_ZN4core6option13expect_failed17h0496241b96c71ad7E>
   817c0:	d4200020 	brk	#0x1
   817c4:	00000000 	.inst	0x00000000 ; undefined

00000000000817c8 <_ZN17ruspiro_singleton4lazy18LazyValue$LT$T$GT$7get_mut17h73801969b1fbc247E>:
   817c8:	a9be57fe 	stp	x30, x21, [sp, #-32]!
   817cc:	a9014ff4 	stp	x20, x19, [sp, #16]
   817d0:	aa0003f3 	mov	x19, x0
   817d4:	f9400808 	ldr	x8, [x0, #16]
   817d8:	f100051f 	cmp	x8, #0x1
   817dc:	54000580 	b.eq	8188c <_ZN17ruspiro_singleton4lazy18LazyValue$LT$T$GT$7get_mut17h73801969b1fbc247E+0xc4>  // b.none
   817e0:	52800028 	mov	w8, #0x1                   	// #1
   817e4:	14000002 	b	817ec <_ZN17ruspiro_singleton4lazy18LazyValue$LT$T$GT$7get_mut17h73801969b1fbc247E+0x24>
   817e8:	d5033f5f 	clrex
   817ec:	085ffe69 	ldaxrb	w9, [x19]
   817f0:	35ffffc9 	cbnz	w9, 817e8 <_ZN17ruspiro_singleton4lazy18LazyValue$LT$T$GT$7get_mut17h73801969b1fbc247E+0x20>
   817f4:	0809fe68 	stlxrb	w9, w8, [x19]
   817f8:	35ffffa9 	cbnz	w9, 817ec <_ZN17ruspiro_singleton4lazy18LazyValue$LT$T$GT$7get_mut17h73801969b1fbc247E+0x24>
   817fc:	d5033fbf 	dmb	sy
   81800:	f9400a68 	ldr	x8, [x19, #16]
   81804:	f100051f 	cmp	x8, #0x1
   81808:	54000340 	b.eq	81870 <_ZN17ruspiro_singleton4lazy18LazyValue$LT$T$GT$7get_mut17h73801969b1fbc247E+0xa8>  // b.none
   8180c:	f9401660 	ldr	x0, [x19, #40]
   81810:	b4000540 	cbz	x0, 818b8 <_ZN17ruspiro_singleton4lazy18LazyValue$LT$T$GT$7get_mut17h73801969b1fbc247E+0xf0>
   81814:	f9401a68 	ldr	x8, [x19, #48]
   81818:	f9400d08 	ldr	x8, [x8, #24]
   8181c:	d63f0100 	blr	x8
   81820:	f9400a68 	ldr	x8, [x19, #16]
   81824:	aa0003f4 	mov	x20, x0
   81828:	aa0103f5 	mov	x21, x1
   8182c:	b40001c8 	cbz	x8, 81864 <_ZN17ruspiro_singleton4lazy18LazyValue$LT$T$GT$7get_mut17h73801969b1fbc247E+0x9c>
   81830:	f100051f 	cmp	x8, #0x1
   81834:	54000500 	b.eq	818d4 <_ZN17ruspiro_singleton4lazy18LazyValue$LT$T$GT$7get_mut17h73801969b1fbc247E+0x10c>  // b.none
   81838:	f9400e60 	ldr	x0, [x19, #24]
   8183c:	b4000140 	cbz	x0, 81864 <_ZN17ruspiro_singleton4lazy18LazyValue$LT$T$GT$7get_mut17h73801969b1fbc247E+0x9c>
   81840:	f9401268 	ldr	x8, [x19, #32]
   81844:	f9400108 	ldr	x8, [x8]
   81848:	d63f0100 	blr	x8
   8184c:	f9401268 	ldr	x8, [x19, #32]
   81850:	f9400501 	ldr	x1, [x8, #8]
   81854:	b4000081 	cbz	x1, 81864 <_ZN17ruspiro_singleton4lazy18LazyValue$LT$T$GT$7get_mut17h73801969b1fbc247E+0x9c>
   81858:	f9400e60 	ldr	x0, [x19, #24]
   8185c:	f9400902 	ldr	x2, [x8, #16]
   81860:	940006d0 	bl	833a0 <__rust_dealloc>
   81864:	52800028 	mov	w8, #0x1                   	// #1
   81868:	f9001275 	str	x21, [x19, #32]
   8186c:	a9015268 	stp	x8, x20, [x19, #16]
   81870:	089ffe7f 	stlrb	wzr, [x19]
   81874:	d5033fbf 	dmb	sy
   81878:	d5033f9f 	dsb	sy
   8187c:	d503209f 	sev
   81880:	f9400a68 	ldr	x8, [x19, #16]
   81884:	f100051f 	cmp	x8, #0x1
   81888:	540000a1 	b.ne	8189c <_ZN17ruspiro_singleton4lazy18LazyValue$LT$T$GT$7get_mut17h73801969b1fbc247E+0xd4>  // b.any
   8188c:	91006260 	add	x0, x19, #0x18
   81890:	a9414ff4 	ldp	x20, x19, [sp, #16]
   81894:	a8c257fe 	ldp	x30, x21, [sp], #32
   81898:	d65f03c0 	ret
   8189c:	f0000080 	adrp	x0, 94000 <anon.98868c38ea5667d973ab3dd5b7fa8ab3.16.llvm.5513183134649085050+0x30>
   818a0:	d00000e2 	adrp	x2, 9f000 <_ZN17ruspiro_allocator6memory10HEAP_START17h21640eff129da783E.llvm.11358094369807046016>
   818a4:	910a1c00 	add	x0, x0, #0x287
   818a8:	52800561 	mov	w1, #0x2b                  	// #43
   818ac:	910d6042 	add	x2, x2, #0x358
   818b0:	94003888 	bl	8fad0 <_ZN4core9panicking5panic17h546310d45640065bE>
   818b4:	d4200020 	brk	#0x1
   818b8:	f0000080 	adrp	x0, 94000 <anon.98868c38ea5667d973ab3dd5b7fa8ab3.16.llvm.5513183134649085050+0x30>
   818bc:	d00000e2 	adrp	x2, 9f000 <_ZN17ruspiro_allocator6memory10HEAP_START17h21640eff129da783E.llvm.11358094369807046016>
   818c0:	910a1c00 	add	x0, x0, #0x287
   818c4:	52800561 	mov	w1, #0x2b                  	// #43
   818c8:	910ca042 	add	x2, x2, #0x328
   818cc:	94003881 	bl	8fad0 <_ZN4core9panicking5panic17h546310d45640065bE>
   818d0:	d4200020 	brk	#0x1
   818d4:	b4000134 	cbz	x20, 818f8 <_ZN17ruspiro_singleton4lazy18LazyValue$LT$T$GT$7get_mut17h73801969b1fbc247E+0x130>
   818d8:	f94002a8 	ldr	x8, [x21]
   818dc:	aa1403e0 	mov	x0, x20
   818e0:	d63f0100 	blr	x8
   818e4:	f94006a1 	ldr	x1, [x21, #8]
   818e8:	b4000081 	cbz	x1, 818f8 <_ZN17ruspiro_singleton4lazy18LazyValue$LT$T$GT$7get_mut17h73801969b1fbc247E+0x130>
   818ec:	f9400aa2 	ldr	x2, [x21, #16]
   818f0:	aa1403e0 	mov	x0, x20
   818f4:	940006ab 	bl	833a0 <__rust_dealloc>
   818f8:	f0000080 	adrp	x0, 94000 <anon.98868c38ea5667d973ab3dd5b7fa8ab3.16.llvm.5513183134649085050+0x30>
   818fc:	d00000e2 	adrp	x2, 9f000 <_ZN17ruspiro_allocator6memory10HEAP_START17h21640eff129da783E.llvm.11358094369807046016>
   81900:	9109b000 	add	x0, x0, #0x26c
   81904:	52800361 	mov	w1, #0x1b                  	// #27
   81908:	910d0042 	add	x2, x2, #0x340
   8190c:	94003871 	bl	8fad0 <_ZN4core9panicking5panic17h546310d45640065bE>
   81910:	d4200020 	brk	#0x1
   81914:	00000000 	.inst	0x00000000 ; undefined

0000000000081918 <_ZN5alloc11collections5btree3map5entry24VacantEntry$LT$K$C$V$GT$6insert17h53989cacc447453eE>:
   81918:	f81a0ffd 	str	x29, [sp, #-96]!
   8191c:	a9016ffe 	stp	x30, x27, [sp, #16]
   81920:	a90267fa 	stp	x26, x25, [sp, #32]
   81924:	a9035ff8 	stp	x24, x23, [sp, #48]
   81928:	a90457f6 	stp	x22, x21, [sp, #64]
   8192c:	a9054ff4 	stp	x20, x19, [sp, #80]
   81930:	d10703ff 	sub	sp, sp, #0x1c0
   81934:	a940a408 	ldp	x8, x9, [x0, #8]
   81938:	aa0203e3 	mov	x3, x2
   8193c:	aa0103e2 	mov	x2, x1
   81940:	f9400c0a 	ldr	x10, [x0, #24]
   81944:	aa0003f4 	mov	x20, x0
   81948:	f9400001 	ldr	x1, [x0]
   8194c:	9102c3e0 	add	x0, sp, #0xb0
   81950:	a90b27e8 	stp	x8, x9, [sp, #176]
   81954:	910003e8 	mov	x8, sp
   81958:	f90063ea 	str	x10, [sp, #192]
   8195c:	97fff9ef 	bl	80118 <_ZN5alloc11collections5btree4node210Handle$LT$alloc..collections..btree..node..NodeRef$LT$alloc..collections..btree..node..marker..Mut$C$K$C$V$C$alloc..collections..btree..node..marker..Leaf$GT$$C$alloc..collections..btree..node..marker..Edge$GT$16insert_recursing17hfa24779eebf0385cE>
   81960:	f94003e8 	ldr	x8, [sp]
   81964:	f94023f3 	ldr	x19, [sp, #64]
   81968:	f100051f 	cmp	x8, #0x1
   8196c:	540005c1 	b.ne	81a24 <_ZN5alloc11collections5btree3map5entry24VacantEntry$LT$K$C$V$GT$6insert17h53989cacc447453eE+0x10c>  // b.any
   81970:	f9401296 	ldr	x22, [x20, #32]
   81974:	f94006c8 	ldr	x8, [x22, #8]
   81978:	b4000708 	cbz	x8, 81a58 <_ZN5alloc11collections5btree3map5entry24VacantEntry$LT$K$C$V$GT$6insert17h53989cacc447453eE+0x140>
   8197c:	a941e3f7 	ldp	x23, x24, [sp, #24]
   81980:	52802f00 	mov	w0, #0x178                 	// #376
   81984:	52800101 	mov	w1, #0x8                   	// #8
   81988:	a942effa 	ldp	x26, x27, [sp, #40]
   8198c:	f9401ff9 	ldr	x25, [sp, #56]
   81990:	94000682 	bl	83398 <__rust_alloc>
   81994:	b4000700 	cbz	x0, 81a74 <_ZN5alloc11collections5btree3map5entry24VacantEntry$LT$K$C$V$GT$6insert17h53989cacc447453eE+0x15c>
   81998:	91002015 	add	x21, x0, #0x8
   8199c:	aa0003f4 	mov	x20, x0
   819a0:	f900001f 	str	xzr, [x0]
   819a4:	52802142 	mov	w2, #0x10a                 	// #266
   819a8:	9102c3e1 	add	x1, sp, #0xb0
   819ac:	aa1503e0 	mov	x0, x21
   819b0:	94001f3a 	bl	89698 <memcpy>
   819b4:	91045280 	add	x0, x20, #0x114
   819b8:	52800c82 	mov	w2, #0x64                  	// #100
   819bc:	910133e1 	add	x1, sp, #0x4c
   819c0:	7902269f 	strh	wzr, [x20, #274]
   819c4:	94001f35 	bl	89698 <memcpy>
   819c8:	f94006c8 	ldr	x8, [x22, #8]
   819cc:	f9008e88 	str	x8, [x20, #280]
   819d0:	f94002c9 	ldr	x9, [x22]
   819d4:	f9000114 	str	x20, [x8]
   819d8:	7902211f 	strh	wzr, [x8, #272]
   819dc:	9100052a 	add	x10, x9, #0x1
   819e0:	eb1b013f 	cmp	x9, x27
   819e4:	a90052ca 	stp	x10, x20, [x22]
   819e8:	540004e1 	b.ne	81a84 <_ZN5alloc11collections5btree3map5entry24VacantEntry$LT$K$C$V$GT$6insert17h53989cacc447453eE+0x16c>  // b.any
   819ec:	79422688 	ldrh	w8, [x20, #274]
   819f0:	f100291f 	cmp	x8, #0xa
   819f4:	54000568 	b.hi	81aa0 <_ZN5alloc11collections5btree3map5entry24VacantEntry$LT$K$C$V$GT$6insert17h53989cacc447453eE+0x188>  // b.pmore
   819f8:	11000509 	add	w9, w8, #0x1
   819fc:	8b08128a 	add	x10, x20, x8, lsl #4
   81a00:	9104628b 	add	x11, x20, #0x118
   81a04:	79022689 	strh	w9, [x20, #274]
   81a08:	91000509 	add	x9, x8, #0x1
   81a0c:	f8287ab7 	str	x23, [x21, x8, lsl #3]
   81a10:	a9066958 	stp	x24, x26, [x10, #96]
   81a14:	f8297979 	str	x25, [x11, x9, lsl #3]
   81a18:	f9000334 	str	x20, [x25]
   81a1c:	79022329 	strh	w9, [x25, #272]
   81a20:	14000002 	b	81a28 <_ZN5alloc11collections5btree3map5entry24VacantEntry$LT$K$C$V$GT$6insert17h53989cacc447453eE+0x110>
   81a24:	f9401296 	ldr	x22, [x20, #32]
   81a28:	f9400ac8 	ldr	x8, [x22, #16]
   81a2c:	aa1303e0 	mov	x0, x19
   81a30:	91000508 	add	x8, x8, #0x1
   81a34:	f9000ac8 	str	x8, [x22, #16]
   81a38:	910703ff 	add	sp, sp, #0x1c0
   81a3c:	a9454ff4 	ldp	x20, x19, [sp, #80]
   81a40:	a94457f6 	ldp	x22, x21, [sp, #64]
   81a44:	a9435ff8 	ldp	x24, x23, [sp, #48]
   81a48:	a94267fa 	ldp	x26, x25, [sp, #32]
   81a4c:	a9416ffe 	ldp	x30, x27, [sp, #16]
   81a50:	f84607fd 	ldr	x29, [sp], #96
   81a54:	d65f03c0 	ret
   81a58:	f0000080 	adrp	x0, 94000 <anon.98868c38ea5667d973ab3dd5b7fa8ab3.16.llvm.5513183134649085050+0x30>
   81a5c:	d00000e2 	adrp	x2, 9f000 <_ZN17ruspiro_allocator6memory10HEAP_START17h21640eff129da783E.llvm.11358094369807046016>
   81a60:	910ac800 	add	x0, x0, #0x2b2
   81a64:	52800561 	mov	w1, #0x2b                  	// #43
   81a68:	910dc042 	add	x2, x2, #0x370
   81a6c:	94003819 	bl	8fad0 <_ZN4core9panicking5panic17h546310d45640065bE>
   81a70:	d4200020 	brk	#0x1
   81a74:	52802f00 	mov	w0, #0x178                 	// #376
   81a78:	52800101 	mov	w1, #0x8                   	// #8
   81a7c:	94002c97 	bl	8ccd8 <_ZN5alloc5alloc18handle_alloc_error17h4609a7d668d8bcf9E>
   81a80:	d4200020 	brk	#0x1
   81a84:	d0000080 	adrp	x0, 93000 <_ZN17ruspiro_interrupt17interrupt_handler17hba3161a75e7834cbE+0x208>
   81a88:	d00000e2 	adrp	x2, 9f000 <_ZN17ruspiro_allocator6memory10HEAP_START17h21640eff129da783E.llvm.11358094369807046016>
   81a8c:	913d8c00 	add	x0, x0, #0xf63
   81a90:	91080042 	add	x2, x2, #0x200
   81a94:	52800601 	mov	w1, #0x30                  	// #48
   81a98:	9400380e 	bl	8fad0 <_ZN4core9panicking5panic17h546310d45640065bE>
   81a9c:	d4200020 	brk	#0x1
   81aa0:	d0000080 	adrp	x0, 93000 <_ZN17ruspiro_interrupt17interrupt_handler17hba3161a75e7834cbE+0x208>
   81aa4:	d00000e2 	adrp	x2, 9f000 <_ZN17ruspiro_allocator6memory10HEAP_START17h21640eff129da783E.llvm.11358094369807046016>
   81aa8:	913b8c00 	add	x0, x0, #0xee3
   81aac:	91086042 	add	x2, x2, #0x218
   81ab0:	52800401 	mov	w1, #0x20                  	// #32
   81ab4:	94003807 	bl	8fad0 <_ZN4core9panicking5panic17h546310d45640065bE>
   81ab8:	d4200020 	brk	#0x1
   81abc:	00000000 	.inst	0x00000000 ; undefined

0000000000081ac0 <_ZN42_$LT$$RF$T$u20$as$u20$core..fmt..Debug$GT$3fmt17h4584631d524cdbe4E>:
   81ac0:	a9402408 	ldp	x8, x9, [x0]
   81ac4:	aa0103e2 	mov	x2, x1
   81ac8:	aa0803e0 	mov	x0, x8
   81acc:	aa0903e1 	mov	x1, x9
   81ad0:	14003b0e 	b	90708 <_ZN40_$LT$str$u20$as$u20$core..fmt..Debug$GT$3fmt17haed9cc11be882c6aE>
   81ad4:	00000000 	.inst	0x00000000 ; undefined

0000000000081ad8 <_ZN44_$LT$$RF$T$u20$as$u20$core..fmt..Display$GT$3fmt17hdc8065e8beef3840E>:
   81ad8:	a9402408 	ldp	x8, x9, [x0]
   81adc:	aa0103e2 	mov	x2, x1
   81ae0:	aa0803e0 	mov	x0, x8
   81ae4:	aa0903e1 	mov	x1, x9
   81ae8:	14003c56 	b	90c40 <_ZN42_$LT$str$u20$as$u20$core..fmt..Display$GT$3fmt17h5206236265b72622E>
   81aec:	00000000 	.inst	0x00000000 ; undefined

0000000000081af0 <_ZN5alloc4sync12Arc$LT$T$GT$9drop_slow17h0eba922a58fb0d78E>:
   81af0:	f9400000 	ldr	x0, [x0]
   81af4:	b100041f 	cmn	x0, #0x1
   81af8:	54000160 	b.eq	81b24 <_ZN5alloc4sync12Arc$LT$T$GT$9drop_slow17h0eba922a58fb0d78E+0x34>  // b.none
   81afc:	91002008 	add	x8, x0, #0x8
   81b00:	c85f7d09 	ldxr	x9, [x8]
   81b04:	f1000529 	subs	x9, x9, #0x1
   81b08:	c80afd09 	stlxr	w10, x9, [x8]
   81b0c:	35ffffaa 	cbnz	w10, 81b00 <_ZN5alloc4sync12Arc$LT$T$GT$9drop_slow17h0eba922a58fb0d78E+0x10>
   81b10:	540000a1 	b.ne	81b24 <_ZN5alloc4sync12Arc$LT$T$GT$9drop_slow17h0eba922a58fb0d78E+0x34>  // b.any
   81b14:	52800401 	mov	w1, #0x20                  	// #32
   81b18:	52800202 	mov	w2, #0x10                  	// #16
   81b1c:	d50339bf 	dmb	ishld
   81b20:	14000620 	b	833a0 <__rust_dealloc>
   81b24:	d65f03c0 	ret

0000000000081b28 <_ZN5alloc4sync12Arc$LT$T$GT$9drop_slow17h2177e060ee23f88eE>:
   81b28:	f81e0ffe 	str	x30, [sp, #-32]!
   81b2c:	a9014ff4 	stp	x20, x19, [sp, #16]
   81b30:	aa0003f3 	mov	x19, x0
   81b34:	f9400014 	ldr	x20, [x0]
   81b38:	91004280 	add	x0, x20, #0x10
   81b3c:	9400063d 	bl	83430 <_ZN69_$LT$ruspiro_vchiq..state..State$u20$as$u20$core..ops..drop..Drop$GT$4drop17h1748a9673dfd0c5cE>
   81b40:	aa1403e0 	mov	x0, x20
   81b44:	f8420c08 	ldr	x8, [x0, #32]!
   81b48:	c85f7d09 	ldxr	x9, [x8]
   81b4c:	f1000529 	subs	x9, x9, #0x1
   81b50:	c80afd09 	stlxr	w10, x9, [x8]
   81b54:	35ffffaa 	cbnz	w10, 81b48 <_ZN5alloc4sync12Arc$LT$T$GT$9drop_slow17h2177e060ee23f88eE+0x20>
   81b58:	54000061 	b.ne	81b64 <_ZN5alloc4sync12Arc$LT$T$GT$9drop_slow17h2177e060ee23f88eE+0x3c>  // b.any
   81b5c:	d50339bf 	dmb	ishld
   81b60:	9400004e 	bl	81c98 <_ZN5alloc4sync12Arc$LT$T$GT$9drop_slow17h88b736e9c5a0f676E>
   81b64:	aa1403e0 	mov	x0, x20
   81b68:	f8428c08 	ldr	x8, [x0, #40]!
   81b6c:	c85f7d09 	ldxr	x9, [x8]
   81b70:	f1000529 	subs	x9, x9, #0x1
   81b74:	c80afd09 	stlxr	w10, x9, [x8]
   81b78:	35ffffaa 	cbnz	w10, 81b6c <_ZN5alloc4sync12Arc$LT$T$GT$9drop_slow17h2177e060ee23f88eE+0x44>
   81b7c:	54000061 	b.ne	81b88 <_ZN5alloc4sync12Arc$LT$T$GT$9drop_slow17h2177e060ee23f88eE+0x60>  // b.any
   81b80:	d50339bf 	dmb	ishld
   81b84:	97ffffdb 	bl	81af0 <_ZN5alloc4sync12Arc$LT$T$GT$9drop_slow17h0eba922a58fb0d78E>
   81b88:	f8430e88 	ldr	x8, [x20, #48]!
   81b8c:	c85f7d09 	ldxr	x9, [x8]
   81b90:	f1000529 	subs	x9, x9, #0x1
   81b94:	c80afd09 	stlxr	w10, x9, [x8]
   81b98:	35ffffaa 	cbnz	w10, 81b8c <_ZN5alloc4sync12Arc$LT$T$GT$9drop_slow17h2177e060ee23f88eE+0x64>
   81b9c:	54000081 	b.ne	81bac <_ZN5alloc4sync12Arc$LT$T$GT$9drop_slow17h2177e060ee23f88eE+0x84>  // b.any
   81ba0:	aa1403e0 	mov	x0, x20
   81ba4:	d50339bf 	dmb	ishld
   81ba8:	94000014 	bl	81bf8 <_ZN5alloc4sync12Arc$LT$T$GT$9drop_slow17h4e6edc9d48cc36a0E>
   81bac:	f9400260 	ldr	x0, [x19]
   81bb0:	b100041f 	cmn	x0, #0x1
   81bb4:	540001a0 	b.eq	81be8 <_ZN5alloc4sync12Arc$LT$T$GT$9drop_slow17h2177e060ee23f88eE+0xc0>  // b.none
   81bb8:	91002008 	add	x8, x0, #0x8
   81bbc:	c85f7d09 	ldxr	x9, [x8]
   81bc0:	f1000529 	subs	x9, x9, #0x1
   81bc4:	c80afd09 	stlxr	w10, x9, [x8]
   81bc8:	35ffffaa 	cbnz	w10, 81bbc <_ZN5alloc4sync12Arc$LT$T$GT$9drop_slow17h2177e060ee23f88eE+0x94>
   81bcc:	540000e1 	b.ne	81be8 <_ZN5alloc4sync12Arc$LT$T$GT$9drop_slow17h2177e060ee23f88eE+0xc0>  // b.any
   81bd0:	d50339bf 	dmb	ishld
   81bd4:	52800801 	mov	w1, #0x40                  	// #64
   81bd8:	a9414ff4 	ldp	x20, x19, [sp, #16]
   81bdc:	52800202 	mov	w2, #0x10                  	// #16
   81be0:	f84207fe 	ldr	x30, [sp], #32
   81be4:	140005ef 	b	833a0 <__rust_dealloc>
   81be8:	a9414ff4 	ldp	x20, x19, [sp, #16]
   81bec:	f84207fe 	ldr	x30, [sp], #32
   81bf0:	d65f03c0 	ret
   81bf4:	00000000 	.inst	0x00000000 ; undefined

0000000000081bf8 <_ZN5alloc4sync12Arc$LT$T$GT$9drop_slow17h4e6edc9d48cc36a0E>:
   81bf8:	f81e0ffe 	str	x30, [sp, #-32]!
   81bfc:	a9014ff4 	stp	x20, x19, [sp, #16]
   81c00:	aa0003f3 	mov	x19, x0
   81c04:	f9400014 	ldr	x20, [x0]
   81c08:	aa1403e0 	mov	x0, x20
   81c0c:	f8410c08 	ldr	x8, [x0, #16]!
   81c10:	c85f7d09 	ldxr	x9, [x8]
   81c14:	f1000529 	subs	x9, x9, #0x1
   81c18:	c80afd09 	stlxr	w10, x9, [x8]
   81c1c:	35ffffaa 	cbnz	w10, 81c10 <_ZN5alloc4sync12Arc$LT$T$GT$9drop_slow17h4e6edc9d48cc36a0E+0x18>
   81c20:	54000061 	b.ne	81c2c <_ZN5alloc4sync12Arc$LT$T$GT$9drop_slow17h4e6edc9d48cc36a0E+0x34>  // b.any
   81c24:	d50339bf 	dmb	ishld
   81c28:	9400001c 	bl	81c98 <_ZN5alloc4sync12Arc$LT$T$GT$9drop_slow17h88b736e9c5a0f676E>
   81c2c:	f8418e88 	ldr	x8, [x20, #24]!
   81c30:	c85f7d09 	ldxr	x9, [x8]
   81c34:	f1000529 	subs	x9, x9, #0x1
   81c38:	c80afd09 	stlxr	w10, x9, [x8]
   81c3c:	35ffffaa 	cbnz	w10, 81c30 <_ZN5alloc4sync12Arc$LT$T$GT$9drop_slow17h4e6edc9d48cc36a0E+0x38>
   81c40:	54000081 	b.ne	81c50 <_ZN5alloc4sync12Arc$LT$T$GT$9drop_slow17h4e6edc9d48cc36a0E+0x58>  // b.any
   81c44:	aa1403e0 	mov	x0, x20
   81c48:	d50339bf 	dmb	ishld
   81c4c:	94000029 	bl	81cf0 <_ZN5alloc4sync12Arc$LT$T$GT$9drop_slow17h8b8a38d3078e78ecE>
   81c50:	f9400260 	ldr	x0, [x19]
   81c54:	b100041f 	cmn	x0, #0x1
   81c58:	540001a0 	b.eq	81c8c <_ZN5alloc4sync12Arc$LT$T$GT$9drop_slow17h4e6edc9d48cc36a0E+0x94>  // b.none
   81c5c:	91002008 	add	x8, x0, #0x8
   81c60:	c85f7d09 	ldxr	x9, [x8]
   81c64:	f1000529 	subs	x9, x9, #0x1
   81c68:	c80afd09 	stlxr	w10, x9, [x8]
   81c6c:	35ffffaa 	cbnz	w10, 81c60 <_ZN5alloc4sync12Arc$LT$T$GT$9drop_slow17h4e6edc9d48cc36a0E+0x68>
   81c70:	540000e1 	b.ne	81c8c <_ZN5alloc4sync12Arc$LT$T$GT$9drop_slow17h4e6edc9d48cc36a0E+0x94>  // b.any
   81c74:	d50339bf 	dmb	ishld
   81c78:	52800401 	mov	w1, #0x20                  	// #32
   81c7c:	a9414ff4 	ldp	x20, x19, [sp, #16]
   81c80:	52800102 	mov	w2, #0x8                   	// #8
   81c84:	f84207fe 	ldr	x30, [sp], #32
   81c88:	140005c6 	b	833a0 <__rust_dealloc>
   81c8c:	a9414ff4 	ldp	x20, x19, [sp, #16]
   81c90:	f84207fe 	ldr	x30, [sp], #32
   81c94:	d65f03c0 	ret

0000000000081c98 <_ZN5alloc4sync12Arc$LT$T$GT$9drop_slow17h88b736e9c5a0f676E>:
   81c98:	a9bf4ffe 	stp	x30, x19, [sp, #-16]!
   81c9c:	f9400008 	ldr	x8, [x0]
   81ca0:	aa0003f3 	mov	x19, x0
   81ca4:	91006100 	add	x0, x8, #0x18
   81ca8:	97fffe1e 	bl	81520 <_ZN95_$LT$alloc..collections..btree..map..BTreeMap$LT$K$C$V$GT$$u20$as$u20$core..ops..drop..Drop$GT$4drop17he309627b178371e6E>
   81cac:	f9400260 	ldr	x0, [x19]
   81cb0:	b100041f 	cmn	x0, #0x1
   81cb4:	54000180 	b.eq	81ce4 <_ZN5alloc4sync12Arc$LT$T$GT$9drop_slow17h88b736e9c5a0f676E+0x4c>  // b.none
   81cb8:	91002008 	add	x8, x0, #0x8
   81cbc:	c85f7d09 	ldxr	x9, [x8]
   81cc0:	f1000529 	subs	x9, x9, #0x1
   81cc4:	c80afd09 	stlxr	w10, x9, [x8]
   81cc8:	35ffffaa 	cbnz	w10, 81cbc <_ZN5alloc4sync12Arc$LT$T$GT$9drop_slow17h88b736e9c5a0f676E+0x24>
   81ccc:	540000c1 	b.ne	81ce4 <_ZN5alloc4sync12Arc$LT$T$GT$9drop_slow17h88b736e9c5a0f676E+0x4c>  // b.any
   81cd0:	52800801 	mov	w1, #0x40                  	// #64
   81cd4:	52800202 	mov	w2, #0x10                  	// #16
   81cd8:	d50339bf 	dmb	ishld
   81cdc:	a8c14ffe 	ldp	x30, x19, [sp], #16
   81ce0:	140005b0 	b	833a0 <__rust_dealloc>
   81ce4:	a8c14ffe 	ldp	x30, x19, [sp], #16
   81ce8:	d65f03c0 	ret
   81cec:	00000000 	.inst	0x00000000 ; undefined

0000000000081cf0 <_ZN5alloc4sync12Arc$LT$T$GT$9drop_slow17h8b8a38d3078e78ecE>:
   81cf0:	f81d0ffe 	str	x30, [sp, #-48]!
   81cf4:	a90157f6 	stp	x22, x21, [sp, #16]
   81cf8:	a9024ff4 	stp	x20, x19, [sp, #32]
   81cfc:	aa0003f3 	mov	x19, x0
   81d00:	f9400015 	ldr	x21, [x0]
   81d04:	910082b4 	add	x20, x21, #0x20
   81d08:	aa1403e0 	mov	x0, x20
   81d0c:	94000b4f 	bl	84a48 <_ZN74_$LT$ruspiro_vchiq..state..StateInner$u20$as$u20$core..ops..drop..Drop$GT$4drop17hf5a93423faf9efe4E>
   81d10:	aa1403e0 	mov	x0, x20
   81d14:	94001a65 	bl	886a8 <_ZN91_$LT$ruspiro_vchiq..shared..slotzero..SlotZeroAccessor$u20$as$u20$core..ops..drop..Drop$GT$4drop17hcb512d3761e6391cE>
   81d18:	910802a0 	add	x0, x21, #0x200
   81d1c:	94001df5 	bl	894f0 <_ZN83_$LT$ruspiro_vchiq..shared..slot..SlotAccessor$u20$as$u20$core..ops..drop..Drop$GT$4drop17hc5145dd12292f4f9E>
   81d20:	f9412aa8 	ldr	x8, [x21, #592]
   81d24:	b40001c8 	cbz	x8, 81d5c <_ZN5alloc4sync12Arc$LT$T$GT$9drop_slow17h8b8a38d3078e78ecE+0x6c>
   81d28:	f94122a0 	ldr	x0, [x21, #576]
   81d2c:	8b080508 	add	x8, x8, x8, lsl #1
   81d30:	d379e114 	lsl	x20, x8, #7
   81d34:	14000004 	b	81d44 <_ZN5alloc4sync12Arc$LT$T$GT$9drop_slow17h8b8a38d3078e78ecE+0x54>
   81d38:	f1060294 	subs	x20, x20, #0x180
   81d3c:	aa1603e0 	mov	x0, x22
   81d40:	540000e0 	b.eq	81d5c <_ZN5alloc4sync12Arc$LT$T$GT$9drop_slow17h8b8a38d3078e78ecE+0x6c>  // b.none
   81d44:	b9416008 	ldr	w8, [x0, #352]
   81d48:	91060016 	add	x22, x0, #0x180
   81d4c:	7100091f 	cmp	w8, #0x2
   81d50:	54ffff40 	b.eq	81d38 <_ZN5alloc4sync12Arc$LT$T$GT$9drop_slow17h8b8a38d3078e78ecE+0x48>  // b.none
   81d54:	940016b1 	bl	87818 <_ZN73_$LT$ruspiro_vchiq..service..Service$u20$as$u20$core..ops..drop..Drop$GT$4drop17ha3393bd5e1428d98E>
   81d58:	17fffff8 	b	81d38 <_ZN5alloc4sync12Arc$LT$T$GT$9drop_slow17h8b8a38d3078e78ecE+0x48>
   81d5c:	f94126a8 	ldr	x8, [x21, #584]
   81d60:	b40000e8 	cbz	x8, 81d7c <_ZN5alloc4sync12Arc$LT$T$GT$9drop_slow17h8b8a38d3078e78ecE+0x8c>
   81d64:	8b080508 	add	x8, x8, x8, lsl #1
   81d68:	d379e101 	lsl	x1, x8, #7
   81d6c:	b4000081 	cbz	x1, 81d7c <_ZN5alloc4sync12Arc$LT$T$GT$9drop_slow17h8b8a38d3078e78ecE+0x8c>
   81d70:	f94122a0 	ldr	x0, [x21, #576]
   81d74:	52800202 	mov	w2, #0x10                  	// #16
   81d78:	9400058a 	bl	833a0 <__rust_dealloc>
   81d7c:	f94132a8 	ldr	x8, [x21, #608]
   81d80:	b40000e8 	cbz	x8, 81d9c <_ZN5alloc4sync12Arc$LT$T$GT$9drop_slow17h8b8a38d3078e78ecE+0xac>
   81d84:	8b080508 	add	x8, x8, x8, lsl #1
   81d88:	d37ced01 	lsl	x1, x8, #4
   81d8c:	b4000081 	cbz	x1, 81d9c <_ZN5alloc4sync12Arc$LT$T$GT$9drop_slow17h8b8a38d3078e78ecE+0xac>
   81d90:	f9412ea0 	ldr	x0, [x21, #600]
   81d94:	52800202 	mov	w2, #0x10                  	// #16
   81d98:	94000582 	bl	833a0 <__rust_dealloc>
   81d9c:	f9400260 	ldr	x0, [x19]
   81da0:	b100041f 	cmn	x0, #0x1
   81da4:	540001c0 	b.eq	81ddc <_ZN5alloc4sync12Arc$LT$T$GT$9drop_slow17h8b8a38d3078e78ecE+0xec>  // b.none
   81da8:	91002008 	add	x8, x0, #0x8
   81dac:	c85f7d09 	ldxr	x9, [x8]
   81db0:	f1000529 	subs	x9, x9, #0x1
   81db4:	c80afd09 	stlxr	w10, x9, [x8]
   81db8:	35ffffaa 	cbnz	w10, 81dac <_ZN5alloc4sync12Arc$LT$T$GT$9drop_slow17h8b8a38d3078e78ecE+0xbc>
   81dbc:	54000101 	b.ne	81ddc <_ZN5alloc4sync12Arc$LT$T$GT$9drop_slow17h8b8a38d3078e78ecE+0xec>  // b.any
   81dc0:	d50339bf 	dmb	ishld
   81dc4:	52805201 	mov	w1, #0x290                 	// #656
   81dc8:	a9424ff4 	ldp	x20, x19, [sp, #32]
   81dcc:	52800202 	mov	w2, #0x10                  	// #16
   81dd0:	a94157f6 	ldp	x22, x21, [sp, #16]
   81dd4:	f84307fe 	ldr	x30, [sp], #48
   81dd8:	14000572 	b	833a0 <__rust_dealloc>
   81ddc:	a9424ff4 	ldp	x20, x19, [sp, #32]
   81de0:	a94157f6 	ldp	x22, x21, [sp, #16]
   81de4:	f84307fe 	ldr	x30, [sp], #48
   81de8:	d65f03c0 	ret
   81dec:	00000000 	.inst	0x00000000 ; undefined

0000000000081df0 <_ZN4core3ptr13drop_in_place17h16598f9657395b1eE>:
   81df0:	a9bf4ffe 	stp	x30, x19, [sp, #-16]!
   81df4:	aa0003f3 	mov	x19, x0
   81df8:	a9402000 	ldp	x0, x8, [x0]
   81dfc:	f9400108 	ldr	x8, [x8]
   81e00:	d63f0100 	blr	x8
   81e04:	f9400668 	ldr	x8, [x19, #8]
   81e08:	f9400501 	ldr	x1, [x8, #8]
   81e0c:	b40000a1 	cbz	x1, 81e20 <_ZN4core3ptr13drop_in_place17h16598f9657395b1eE+0x30>
   81e10:	f9400260 	ldr	x0, [x19]
   81e14:	f9400902 	ldr	x2, [x8, #16]
   81e18:	a8c14ffe 	ldp	x30, x19, [sp], #16
   81e1c:	14000561 	b	833a0 <__rust_dealloc>
   81e20:	a8c14ffe 	ldp	x30, x19, [sp], #16
   81e24:	d65f03c0 	ret

0000000000081e28 <_ZN6kernel3run17h87f5a1ecd3d61514E>:
   81e28:	d102c3ff 	sub	sp, sp, #0xb0
   81e2c:	d00000aa 	adrp	x10, 97000 <_ZN4core7unicode12unicode_data15grapheme_extend7OFFSETS17hbef86ff8a98b3e98E+0x4d0>
   81e30:	a90a4ffe 	stp	x30, x19, [sp, #160]
   81e34:	910243e8 	add	x8, sp, #0x90
   81e38:	910033e9 	add	x9, sp, #0xc
   81e3c:	f9432d4a 	ldr	x10, [x10, #1624]
   81e40:	b9000fe0 	str	w0, [sp, #12]
   81e44:	910043e0 	add	x0, sp, #0x10
   81e48:	a9002909 	stp	x9, x10, [x8]
   81e4c:	d00000ea 	adrp	x10, 9f000 <_ZN17ruspiro_allocator6memory10HEAP_START17h21640eff129da783E.llvm.11358094369807046016>
   81e50:	52800029 	mov	w9, #0x1                   	// #1
   81e54:	9110e14a 	add	x10, x10, #0x438
   81e58:	a90627ea 	stp	x10, x9, [sp, #96]
   81e5c:	a90827e8 	stp	x8, x9, [sp, #128]
   81e60:	d00000e8 	adrp	x8, 9f000 <_ZN17ruspiro_allocator6memory10HEAP_START17h21640eff129da783E.llvm.11358094369807046016>
   81e64:	90000009 	adrp	x9, 81000 <_ZN5alloc11collections5btree6remove259_$LT$impl$u20$alloc..collections..btree..node..Handle$LT$alloc..collections..btree..node..NodeRef$LT$alloc..collections..btree..node..marker..Mut$C$K$C$V$C$alloc..collections..btree..node..marker..Leaf$GT$$C$alloc..collections..btree..node..marker..KV$GT$$GT$14remove_leaf_kv17hbcbd10e49eab67d3E+0x250>
   81e68:	91102108 	add	x8, x8, #0x408
   81e6c:	912b6129 	add	x9, x9, #0xad8
   81e70:	a90427e8 	stp	x8, x9, [sp, #64]
   81e74:	d00000a9 	adrp	x9, 97000 <_ZN4core7unicode12unicode_data15grapheme_extend7OFFSETS17hbef86ff8a98b3e98E+0x4d0>
   81e78:	910183e8 	add	x8, sp, #0x60
   81e7c:	f9433129 	ldr	x9, [x9, #1632]
   81e80:	a9077fff 	stp	xzr, xzr, [sp, #112]
   81e84:	a9027fff 	stp	xzr, xzr, [sp, #32]
   81e88:	a90527e8 	stp	x8, x9, [sp, #80]
   81e8c:	d00000e9 	adrp	x9, 9f000 <_ZN17ruspiro_allocator6memory10HEAP_START17h21640eff129da783E.llvm.11358094369807046016>
   81e90:	52800068 	mov	w8, #0x3                   	// #3
   81e94:	910f6129 	add	x9, x9, #0x3d8
   81e98:	a90123e9 	stp	x9, x8, [sp, #16]
   81e9c:	910103e8 	add	x8, sp, #0x40
   81ea0:	52800049 	mov	w9, #0x2                   	// #2
   81ea4:	a90327e8 	stp	x8, x9, [sp, #48]
   81ea8:	940023a0 	bl	8ad28 <_ZN15ruspiro_console6_print17ha7e8cfe4d23036e3E>
   81eac:	d00000b3 	adrp	x19, 97000 <_ZN4core7unicode12unicode_data15grapheme_extend7OFFSETS17hbef86ff8a98b3e98E+0x4d0>
   81eb0:	f9433673 	ldr	x19, [x19, #1640]
   81eb4:	39400268 	ldrb	w8, [x19]
   81eb8:	72001d1f 	tst	w8, #0xff
   81ebc:	540000a0 	b.eq	81ed0 <_ZN6kernel3run17h87f5a1ecd3d61514E+0xa8>  // b.none
   81ec0:	d503205f 	wfe
   81ec4:	39400268 	ldrb	w8, [x19]
   81ec8:	72001d1f 	tst	w8, #0xff
   81ecc:	54ffffa1 	b.ne	81ec0 <_ZN6kernel3run17h87f5a1ecd3d61514E+0x98>  // b.any
   81ed0:	91001268 	add	x8, x19, #0x4
   81ed4:	885ffd09 	ldaxr	w9, [x8]
   81ed8:	11000529 	add	w9, w9, #0x1
   81edc:	880a7d09 	stxr	w10, w9, [x8]
   81ee0:	35ffffaa 	cbnz	w10, 81ed4 <_ZN6kernel3run17h87f5a1ecd3d61514E+0xac>
   81ee4:	91002260 	add	x0, x19, #0x8
   81ee8:	94001ffc 	bl	89ed8 <_ZN13ruspiro_brain5Brain11do_thinking17h87b66ed92edecea3E>
   81eec:	91001268 	add	x8, x19, #0x4
   81ef0:	885f7d09 	ldxr	w9, [x8]
   81ef4:	51000529 	sub	w9, w9, #0x1
   81ef8:	880afd09 	stlxr	w10, w9, [x8]
   81efc:	35ffff8a 	cbnz	w10, 81eec <_ZN6kernel3run17h87f5a1ecd3d61514E+0xc4>
   81f00:	d5033fbf 	dmb	sy
   81f04:	14000000 	b	81f04 <_ZN6kernel3run17h87f5a1ecd3d61514E+0xdc>

0000000000081f08 <__kernel_startup>:
   81f08:	d10783ff 	sub	sp, sp, #0x1e0
   81f0c:	a9197bfd 	stp	x29, x30, [sp, #400]
   81f10:	a91a67fa 	stp	x26, x25, [sp, #416]
   81f14:	a91b5ff8 	stp	x24, x23, [sp, #432]
   81f18:	a91c57f6 	stp	x22, x21, [sp, #448]
   81f1c:	a91d4ff4 	stp	x20, x19, [sp, #464]
   81f20:	2a0003f3 	mov	w19, w0
   81f24:	94002941 	bl	8c428 <_ZN15ruspiro_mailbox7Mailbox3new17h464f1eb48c554f69E>
   81f28:	9103a3e8 	add	x8, sp, #0xe8
   81f2c:	910623e0 	add	x0, sp, #0x188
   81f30:	94002940 	bl	8c430 <_ZN15ruspiro_mailbox7Mailbox13get_vc_memory17h5ef4feacc9402331E>
   81f34:	b940ebe8 	ldr	w8, [sp, #232]
   81f38:	7100051f 	cmp	w8, #0x1
   81f3c:	54001440 	b.eq	821c4 <__kernel_startup+0x2bc>  // b.none
   81f40:	295d8be1 	ldp	w1, w2, [sp, #236]
   81f44:	2a1303e0 	mov	w0, w19
   81f48:	94002840 	bl	8c048 <_ZN11ruspiro_mmu10initialize17he89f472d8038dd64E>
   81f4c:	350012f3 	cbnz	w19, 821a8 <__kernel_startup+0x2a0>
   81f50:	94002180 	bl	8a550 <_ZN12ruspiro_uart5uart15Uart13new17h8cf7c0273c88b9ecE>
   81f54:	52965001 	mov	w1, #0xb280                	// #45696
   81f58:	52984002 	mov	w2, #0xc200                	// #49664
   81f5c:	390073e0 	strb	w0, [sp, #28]
   81f60:	72a1dcc1 	movk	w1, #0xee6, lsl #16
   81f64:	72a00022 	movk	w2, #0x1, lsl #16
   81f68:	910073e0 	add	x0, sp, #0x1c
   81f6c:	9400217b 	bl	8a558 <_ZN12ruspiro_uart5uart15Uart110initialize17hd529a0c99747a769E>
   81f70:	b4000060 	cbz	x0, 81f7c <__kernel_startup+0x74>
   81f74:	52800034 	mov	w20, #0x1                   	// #1
   81f78:	14000028 	b	82018 <__kernel_startup+0x110>
   81f7c:	d00000b5 	adrp	x21, 97000 <_ZN4core7unicode12unicode_data15grapheme_extend7OFFSETS17hbef86ff8a98b3e98E+0x4d0>
   81f80:	394073f3 	ldrb	w19, [sp, #28]
   81f84:	52800028 	mov	w8, #0x1                   	// #1
   81f88:	f9433ab5 	ldr	x21, [x21, #1648]
   81f8c:	14000002 	b	81f94 <__kernel_startup+0x8c>
   81f90:	d503205f 	wfe
   81f94:	b94006a9 	ldr	w9, [x21, #4]
   81f98:	35ffffc9 	cbnz	w9, 81f90 <__kernel_startup+0x88>
   81f9c:	085ffea9 	ldaxrb	w9, [x21]
   81fa0:	080a7ea8 	stxrb	w10, w8, [x21]
   81fa4:	35ffffca 	cbnz	w10, 81f9c <__kernel_startup+0x94>
   81fa8:	35ffff49 	cbnz	w9, 81f90 <__kernel_startup+0x88>
   81fac:	910042a0 	add	x0, x21, #0x10
   81fb0:	d5033fbf 	dmb	sy
   81fb4:	97fffe05 	bl	817c8 <_ZN17ruspiro_singleton4lazy18LazyValue$LT$T$GT$7get_mut17h73801969b1fbc247E>
   81fb8:	aa0003f4 	mov	x20, x0
   81fbc:	52800020 	mov	w0, #0x1                   	// #1
   81fc0:	52800021 	mov	w1, #0x1                   	// #1
   81fc4:	940004f5 	bl	83398 <__rust_alloc>
   81fc8:	b4001220 	cbz	x0, 8220c <__kernel_startup+0x304>
   81fcc:	39000013 	strb	w19, [x0]
   81fd0:	d00000e8 	adrp	x8, 9f000 <_ZN17ruspiro_allocator6memory10HEAP_START17h21640eff129da783E.llvm.11358094369807046016>
   81fd4:	a9405a93 	ldp	x19, x22, [x20]
   81fd8:	9115c108 	add	x8, x8, #0x570
   81fdc:	a9002280 	stp	x0, x8, [x20]
   81fe0:	b4000133 	cbz	x19, 82004 <__kernel_startup+0xfc>
   81fe4:	f94002c8 	ldr	x8, [x22]
   81fe8:	aa1303e0 	mov	x0, x19
   81fec:	d63f0100 	blr	x8
   81ff0:	f94006c1 	ldr	x1, [x22, #8]
   81ff4:	b4000081 	cbz	x1, 82004 <__kernel_startup+0xfc>
   81ff8:	f9400ac2 	ldr	x2, [x22, #16]
   81ffc:	aa1303e0 	mov	x0, x19
   82000:	940004e8 	bl	833a0 <__rust_dealloc>
   82004:	2a1f03f4 	mov	w20, wzr
   82008:	089ffebf 	stlrb	wzr, [x21]
   8200c:	d5033fbf 	dmb	sy
   82010:	d5033f9f 	dsb	sy
   82014:	d503209f 	sev
   82018:	b00000e8 	adrp	x8, 9f000 <_ZN17ruspiro_allocator6memory10HEAP_START17h21640eff129da783E.llvm.11358094369807046016>
   8201c:	d0000096 	adrp	x22, 94000 <anon.98868c38ea5667d973ab3dd5b7fa8ab3.16.llvm.5513183134649085050+0x30>
   82020:	91106108 	add	x8, x8, #0x418
   82024:	5280003a 	mov	w26, #0x1                   	// #1
   82028:	910f02d6 	add	x22, x22, #0x3c0
   8202c:	b00000b7 	adrp	x23, 97000 <_ZN4core7unicode12unicode_data15grapheme_extend7OFFSETS17hbef86ff8a98b3e98E+0x4d0>
   82030:	a90fffff 	stp	xzr, xzr, [sp, #248]
   82034:	b00000f9 	adrp	x25, 9f000 <_ZN17ruspiro_allocator6memory10HEAP_START17h21640eff129da783E.llvm.11358094369807046016>
   82038:	a90eebe8 	stp	x8, x26, [sp, #232]
   8203c:	9103a3e8 	add	x8, sp, #0xe8
   82040:	a910fff6 	stp	x22, xzr, [sp, #264]
   82044:	910f6339 	add	x25, x25, #0x3d8
   82048:	f94332f7 	ldr	x23, [x23, #1632]
   8204c:	b00000f3 	adrp	x19, 9f000 <_ZN17ruspiro_allocator6memory10HEAP_START17h21640eff129da783E.llvm.11358094369807046016>
   82050:	f0fffff8 	adrp	x24, 81000 <_ZN5alloc11collections5btree6remove259_$LT$impl$u20$alloc..collections..btree..node..Handle$LT$alloc..collections..btree..node..NodeRef$LT$alloc..collections..btree..node..marker..Mut$C$K$C$V$C$alloc..collections..btree..node..marker..Leaf$GT$$C$alloc..collections..btree..node..marker..KV$GT$$GT$14remove_leaf_kv17hbcbd10e49eab67d3E+0x250>
   82054:	91102273 	add	x19, x19, #0x408
   82058:	912b6318 	add	x24, x24, #0xad8
   8205c:	52800049 	mov	w9, #0x2                   	// #2
   82060:	910103e0 	add	x0, sp, #0x40
   82064:	a9057fff 	stp	xzr, xzr, [sp, #80]
   82068:	a9035fe8 	stp	x8, x23, [sp, #48]
   8206c:	52800068 	mov	w8, #0x3                   	// #3
   82070:	a90263f3 	stp	x19, x24, [sp, #32]
   82074:	a90423f9 	stp	x25, x8, [sp, #64]
   82078:	910083e8 	add	x8, sp, #0x20
   8207c:	a90627e8 	stp	x8, x9, [sp, #96]
   82080:	9400232a 	bl	8ad28 <_ZN15ruspiro_console6_print17ha7e8cfe4d23036e3E>
   82084:	b00000b5 	adrp	x21, 97000 <_ZN4core7unicode12unicode_data15grapheme_extend7OFFSETS17hbef86ff8a98b3e98E+0x4d0>
   82088:	f94336b5 	ldr	x21, [x21, #1640]
   8208c:	14000002 	b	82094 <__kernel_startup+0x18c>
   82090:	d503205f 	wfe
   82094:	b94006a8 	ldr	w8, [x21, #4]
   82098:	35ffffc8 	cbnz	w8, 82090 <__kernel_startup+0x188>
   8209c:	085ffea8 	ldaxrb	w8, [x21]
   820a0:	08097eba 	stxrb	w9, w26, [x21]
   820a4:	35ffffc9 	cbnz	w9, 8209c <__kernel_startup+0x194>
   820a8:	35ffff48 	cbnz	w8, 82090 <__kernel_startup+0x188>
   820ac:	910022a0 	add	x0, x21, #0x8
   820b0:	d5033fbf 	dmb	sy
   820b4:	94001f47 	bl	89dd0 <_ZN13ruspiro_brain5Brain4init17hae806e54322e066aE>
   820b8:	b00000e9 	adrp	x9, 9f000 <_ZN17ruspiro_allocator6memory10HEAP_START17h21640eff129da783E.llvm.11358094369807046016>
   820bc:	52800028 	mov	w8, #0x1                   	// #1
   820c0:	9110a129 	add	x9, x9, #0x428
   820c4:	089ffebf 	stlrb	wzr, [x21]
   820c8:	d5033fbf 	dmb	sy
   820cc:	d5033f9f 	dsb	sy
   820d0:	d503209f 	sev
   820d4:	910103e0 	add	x0, sp, #0x40
   820d8:	a90fffff 	stp	xzr, xzr, [sp, #248]
   820dc:	a90ea3e9 	stp	x9, x8, [sp, #232]
   820e0:	9103a3e8 	add	x8, sp, #0xe8
   820e4:	52800069 	mov	w9, #0x3                   	// #3
   820e8:	a910fff6 	stp	x22, xzr, [sp, #264]
   820ec:	a90263f3 	stp	x19, x24, [sp, #32]
   820f0:	a9035fe8 	stp	x8, x23, [sp, #48]
   820f4:	910083e8 	add	x8, sp, #0x20
   820f8:	a90427f9 	stp	x25, x9, [sp, #64]
   820fc:	52800049 	mov	w9, #0x2                   	// #2
   82100:	a9057fff 	stp	xzr, xzr, [sp, #80]
   82104:	a90627e8 	stp	x8, x9, [sp, #96]
   82108:	94002308 	bl	8ad28 <_ZN15ruspiro_console6_print17ha7e8cfe4d23036e3E>
   8210c:	394002a8 	ldrb	w8, [x21]
   82110:	72001d1f 	tst	w8, #0xff
   82114:	540000a0 	b.eq	82128 <__kernel_startup+0x220>  // b.none
   82118:	d503205f 	wfe
   8211c:	394002a8 	ldrb	w8, [x21]
   82120:	72001d1f 	tst	w8, #0xff
   82124:	54ffffa1 	b.ne	82118 <__kernel_startup+0x210>  // b.any
   82128:	910012a8 	add	x8, x21, #0x4
   8212c:	885ffd09 	ldaxr	w9, [x8]
   82130:	11000529 	add	w9, w9, #0x1
   82134:	880a7d09 	stxr	w10, w9, [x8]
   82138:	35ffffaa 	cbnz	w10, 8212c <__kernel_startup+0x224>
   8213c:	528013e2 	mov	w2, #0x9f                  	// #159
   82140:	9103a3e0 	add	x0, sp, #0xe8
   82144:	910103e1 	add	x1, sp, #0x40
   82148:	94001d54 	bl	89698 <memcpy>
   8214c:	52801400 	mov	w0, #0xa0                  	// #160
   82150:	52800201 	mov	w1, #0x10                  	// #16
   82154:	94000491 	bl	83398 <__rust_alloc>
   82158:	b4000520 	cbz	x0, 821fc <__kernel_startup+0x2f4>
   8215c:	528013e2 	mov	w2, #0x9f                  	// #159
   82160:	9103a3e1 	add	x1, sp, #0xe8
   82164:	aa0003f3 	mov	x19, x0
   82168:	3800141f 	strb	wzr, [x0], #1
   8216c:	94001d4b 	bl	89698 <memcpy>
   82170:	b00000e2 	adrp	x2, 9f000 <_ZN17ruspiro_allocator6memory10HEAP_START17h21640eff129da783E.llvm.11358094369807046016>
   82174:	910022a0 	add	x0, x21, #0x8
   82178:	91140042 	add	x2, x2, #0x500
   8217c:	aa1303e1 	mov	x1, x19
   82180:	94001fc2 	bl	8a088 <_ZN13ruspiro_brain5Brain8think_on17h964d542122854114E>
   82184:	910012a8 	add	x8, x21, #0x4
   82188:	885f7d09 	ldxr	w9, [x8]
   8218c:	51000529 	sub	w9, w9, #0x1
   82190:	880afd09 	stlxr	w10, w9, [x8]
   82194:	35ffff8a 	cbnz	w10, 82184 <__kernel_startup+0x27c>
   82198:	d5033fbf 	dmb	sy
   8219c:	36000074 	tbz	w20, #0, 821a8 <__kernel_startup+0x2a0>
   821a0:	910073e0 	add	x0, sp, #0x1c
   821a4:	9400212b 	bl	8a650 <_ZN68_$LT$ruspiro_uart..uart1..Uart1$u20$as$u20$core..ops..drop..Drop$GT$4drop17h5eae231bdd404bb9E>
   821a8:	a95d4ff4 	ldp	x20, x19, [sp, #464]
   821ac:	a95c57f6 	ldp	x22, x21, [sp, #448]
   821b0:	a95b5ff8 	ldp	x24, x23, [sp, #432]
   821b4:	a95a67fa 	ldp	x26, x25, [sp, #416]
   821b8:	a9597bfd 	ldp	x29, x30, [sp, #400]
   821bc:	910783ff 	add	sp, sp, #0x1e0
   821c0:	d65f03c0 	ret
   821c4:	a94f23e9 	ldp	x9, x8, [sp, #240]
   821c8:	d0000080 	adrp	x0, 94000 <anon.98868c38ea5667d973ab3dd5b7fa8ab3.16.llvm.5513183134649085050+0x30>
   821cc:	b00000e3 	adrp	x3, 9f000 <_ZN17ruspiro_allocator6memory10HEAP_START17h21640eff129da783E.llvm.11358094369807046016>
   821d0:	b00000e4 	adrp	x4, 9f000 <_ZN17ruspiro_allocator6memory10HEAP_START17h21640eff129da783E.llvm.11358094369807046016>
   821d4:	910d8c00 	add	x0, x0, #0x363
   821d8:	910e8063 	add	x3, x3, #0x3a0
   821dc:	52800461 	mov	w1, #0x23                  	// #35
   821e0:	910f0084 	add	x4, x4, #0x3c0
   821e4:	910103e2 	add	x2, sp, #0x40
   821e8:	a90023e9 	stp	x9, x8, [sp]
   821ec:	3dc003e0 	ldr	q0, [sp]
   821f0:	3d8013e0 	str	q0, [sp, #64]
   821f4:	9400361f 	bl	8fa70 <_ZN4core6result13unwrap_failed17h6ecc0f20d79874b9E>
   821f8:	d4200020 	brk	#0x1
   821fc:	52801400 	mov	w0, #0xa0                  	// #160
   82200:	52800201 	mov	w1, #0x10                  	// #16
   82204:	94002ab5 	bl	8ccd8 <_ZN5alloc5alloc18handle_alloc_error17h4609a7d668d8bcf9E>
   82208:	d4200020 	brk	#0x1
   8220c:	52800020 	mov	w0, #0x1                   	// #1
   82210:	52800021 	mov	w1, #0x1                   	// #1
   82214:	94002ab1 	bl	8ccd8 <_ZN5alloc5alloc18handle_alloc_error17h4609a7d668d8bcf9E>
   82218:	d4200020 	brk	#0x1
   8221c:	00000000 	.inst	0x00000000 ; undefined

0000000000082220 <__kernel_run>:
   82220:	97ffff02 	bl	81e28 <_ZN6kernel3run17h87f5a1ecd3d61514E>
   82224:	d4200020 	brk	#0x1

0000000000082228 <_ZN5alloc11collections5btree8navigate10full_range17hb980b5ffbaf96c4aE>:
   82228:	d10103ff 	sub	sp, sp, #0x40
   8222c:	f100005f 	cmp	x2, #0x0
   82230:	79422469 	ldrh	w9, [x3, #274]
   82234:	1a9f17eb 	cset	w11, eq  // eq = none
   82238:	b4000260 	cbz	x0, 82284 <_ZN5alloc11collections5btree8navigate10full_range17hb980b5ffbaf96c4aE+0x5c>
   8223c:	cb00004a 	sub	x10, x2, x0
   82240:	d100044c 	sub	x12, x2, #0x1
   82244:	3700024b 	tbnz	w11, #0, 8228c <_ZN5alloc11collections5btree8navigate10full_range17hb980b5ffbaf96c4aE+0x64>
   82248:	8b090c69 	add	x9, x3, x9, lsl #3
   8224c:	f9408c21 	ldr	x1, [x1, #280]
   82250:	f100019f 	cmp	x12, #0x0
   82254:	d1000400 	sub	x0, x0, #0x1
   82258:	1a9f17eb 	cset	w11, eq  // eq = none
   8225c:	d100058c 	sub	x12, x12, #0x1
   82260:	f9408d23 	ldr	x3, [x9, #280]
   82264:	79422469 	ldrh	w9, [x3, #274]
   82268:	b5fffee0 	cbnz	x0, 82244 <_ZN5alloc11collections5btree8navigate10full_range17hb980b5ffbaf96c4aE+0x1c>
   8226c:	3600010b 	tbz	w11, #0, 8228c <_ZN5alloc11collections5btree8navigate10full_range17hb980b5ffbaf96c4aE+0x64>
   82270:	a900051f 	stp	xzr, x1, [x8]
   82274:	a901291f 	stp	xzr, x10, [x8, #16]
   82278:	a9022503 	stp	x3, x9, [x8, #32]
   8227c:	910103ff 	add	sp, sp, #0x40
   82280:	d65f03c0 	ret
   82284:	aa0203ea 	mov	x10, x2
   82288:	3707ff4b 	tbnz	w11, #0, 82270 <_ZN5alloc11collections5btree8navigate10full_range17hb980b5ffbaf96c4aE+0x48>
   8228c:	b00000e8 	adrp	x8, 9f000 <_ZN17ruspiro_allocator6memory10HEAP_START17h21640eff129da783E.llvm.11358094369807046016>
   82290:	f0ffffe9 	adrp	x9, 81000 <_ZN5alloc11collections5btree6remove259_$LT$impl$u20$alloc..collections..btree..node..Handle$LT$alloc..collections..btree..node..NodeRef$LT$alloc..collections..btree..node..marker..Mut$C$K$C$V$C$alloc..collections..btree..node..marker..Leaf$GT$$C$alloc..collections..btree..node..marker..KV$GT$$GT$14remove_leaf_kv17hbcbd10e49eab67d3E+0x250>
   82294:	91116108 	add	x8, x8, #0x458
   82298:	912b6129 	add	x9, x9, #0xad8
   8229c:	b00000e1 	adrp	x1, 9f000 <_ZN17ruspiro_allocator6memory10HEAP_START17h21640eff129da783E.llvm.11358094369807046016>
   822a0:	910003e0 	mov	x0, sp
   822a4:	9111a021 	add	x1, x1, #0x468
   822a8:	a9017fff 	stp	xzr, xzr, [sp, #16]
   822ac:	a90327e8 	stp	x8, x9, [sp, #48]
   822b0:	b00000e9 	adrp	x9, 9f000 <_ZN17ruspiro_allocator6memory10HEAP_START17h21640eff129da783E.llvm.11358094369807046016>
   822b4:	52800028 	mov	w8, #0x1                   	// #1
   822b8:	91112129 	add	x9, x9, #0x448
   822bc:	a90023e9 	stp	x9, x8, [sp]
   822c0:	9100c3e9 	add	x9, sp, #0x30
   822c4:	a90223e9 	stp	x9, x8, [sp, #32]
   822c8:	94003624 	bl	8fb58 <_ZN4core9panicking9panic_fmt17he72c5c806e9fe43cE>
   822cc:	d4200020 	brk	#0x1

00000000000822d0 <_ZN5alloc11collections5btree8navigate25next_kv_unchecked_dealloc17h4bde62be500b4bebE>:
   822d0:	f81c0ffe 	str	x30, [sp, #-64]!
   822d4:	aa0003e9 	mov	x9, x0
   822d8:	f9400400 	ldr	x0, [x0, #8]
   822dc:	a9015ff8 	stp	x24, x23, [sp, #16]
   822e0:	a90257f6 	stp	x22, x21, [sp, #32]
   822e4:	a9034ff4 	stp	x20, x19, [sp, #48]
   822e8:	aa0803f3 	mov	x19, x8
   822ec:	f9400935 	ldr	x21, [x9, #16]
   822f0:	7942240a 	ldrh	w10, [x0, #274]
   822f4:	f9400129 	ldr	x9, [x9]
   822f8:	eb0a02bf 	cmp	x21, x10
   822fc:	54000142 	b.cs	82324 <_ZN5alloc11collections5btree8navigate25next_kv_unchecked_dealloc17h4bde62be500b4bebE+0x54>  // b.hs, b.nlast
   82300:	aa0003f7 	mov	x23, x0
   82304:	aa0903f8 	mov	x24, x9
   82308:	a9005e78 	stp	x24, x23, [x19]
   8230c:	f9000a75 	str	x21, [x19, #16]
   82310:	a9434ff4 	ldp	x20, x19, [sp, #48]
   82314:	a94257f6 	ldp	x22, x21, [sp, #32]
   82318:	a9415ff8 	ldp	x24, x23, [sp, #16]
   8231c:	f84407fe 	ldr	x30, [sp], #64
   82320:	d65f03c0 	ret
   82324:	52802f14 	mov	w20, #0x178                 	// #376
   82328:	52802316 	mov	w22, #0x118                 	// #280
   8232c:	1400000c 	b	8235c <_ZN5alloc11collections5btree8navigate25next_kv_unchecked_dealloc17h4bde62be500b4bebE+0x8c>
   82330:	79422015 	ldrh	w21, [x0, #272]
   82334:	91000538 	add	x24, x9, #0x1
   82338:	f100013f 	cmp	x9, #0x0
   8233c:	52800102 	mov	w2, #0x8                   	// #8
   82340:	9a9402c1 	csel	x1, x22, x20, eq  // eq = none
   82344:	94000417 	bl	833a0 <__rust_dealloc>
   82348:	794226e8 	ldrh	w8, [x23, #274]
   8234c:	aa1703e0 	mov	x0, x23
   82350:	aa1803e9 	mov	x9, x24
   82354:	eb0802bf 	cmp	x21, x8
   82358:	54fffd83 	b.cc	82308 <_ZN5alloc11collections5btree8navigate25next_kv_unchecked_dealloc17h4bde62be500b4bebE+0x38>  // b.lo, b.ul, b.last
   8235c:	f9400017 	ldr	x23, [x0]
   82360:	b5fffe97 	cbnz	x23, 82330 <_ZN5alloc11collections5btree8navigate25next_kv_unchecked_dealloc17h4bde62be500b4bebE+0x60>
   82364:	aa1f03f5 	mov	x21, xzr
   82368:	aa1f03f8 	mov	x24, xzr
   8236c:	17fffff3 	b	82338 <_ZN5alloc11collections5btree8navigate25next_kv_unchecked_dealloc17h4bde62be500b4bebE+0x68>

0000000000082370 <rust_begin_unwind>:
   82370:	d10383ff 	sub	sp, sp, #0xe0
   82374:	a90d4ffe 	stp	x30, x19, [sp, #208]
   82378:	94003328 	bl	8f018 <_ZN4core5panic9PanicInfo8location17h60728551290dc721E>
   8237c:	b40005a0 	cbz	x0, 82430 <rust_begin_unwind+0xc0>
   82380:	aa0003f3 	mov	x19, x0
   82384:	94003327 	bl	8f020 <_ZN4core5panic8Location4file17h9104157732e8c04dE>
   82388:	a90587e0 	stp	x0, x1, [sp, #88]
   8238c:	aa1303e0 	mov	x0, x19
   82390:	94003328 	bl	8f030 <_ZN4core5panic8Location4line17hf0e6c8426fe63bd9E>
   82394:	b9006be0 	str	w0, [sp, #104]
   82398:	aa1303e0 	mov	x0, x19
   8239c:	94003327 	bl	8f038 <_ZN4core5panic8Location6column17h390376d481aaee5dE>
   823a0:	f0ffffe9 	adrp	x9, 81000 <_ZN5alloc11collections5btree6remove259_$LT$impl$u20$alloc..collections..btree..node..Handle$LT$alloc..collections..btree..node..NodeRef$LT$alloc..collections..btree..node..marker..Mut$C$K$C$V$C$alloc..collections..btree..node..marker..Leaf$GT$$C$alloc..collections..btree..node..marker..KV$GT$$GT$14remove_leaf_kv17hbcbd10e49eab67d3E+0x250>
   823a4:	b00000ab 	adrp	x11, 97000 <_ZN4core7unicode12unicode_data15grapheme_extend7OFFSETS17hbef86ff8a98b3e98E+0x4d0>
   823a8:	910163e8 	add	x8, sp, #0x58
   823ac:	912b0129 	add	x9, x9, #0xac0
   823b0:	b9006fe0 	str	w0, [sp, #108]
   823b4:	9101a3ea 	add	x10, sp, #0x68
   823b8:	f9432d6b 	ldr	x11, [x11, #1624]
   823bc:	910023e0 	add	x0, sp, #0x8
   823c0:	a90a27e8 	stp	x8, x9, [sp, #160]
   823c4:	9101b3e8 	add	x8, sp, #0x6c
   823c8:	b00000e9 	adrp	x9, 9f000 <_ZN17ruspiro_allocator6memory10HEAP_START17h21640eff129da783E.llvm.11358094369807046016>
   823cc:	a9087fff 	stp	xzr, xzr, [sp, #128]
   823d0:	91134129 	add	x9, x9, #0x4d0
   823d4:	a90c2fe8 	stp	x8, x11, [sp, #192]
   823d8:	52800068 	mov	w8, #0x3                   	// #3
   823dc:	a90b2fea 	stp	x10, x11, [sp, #176]
   823e0:	f0ffffea 	adrp	x10, 81000 <_ZN5alloc11collections5btree6remove259_$LT$impl$u20$alloc..collections..btree..node..Handle$LT$alloc..collections..btree..node..NodeRef$LT$alloc..collections..btree..node..marker..Mut$C$K$C$V$C$alloc..collections..btree..node..marker..Leaf$GT$$C$alloc..collections..btree..node..marker..KV$GT$$GT$14remove_leaf_kv17hbcbd10e49eab67d3E+0x250>
   823e4:	912b614a 	add	x10, x10, #0xad8
   823e8:	910283eb 	add	x11, sp, #0xa0
   823ec:	a90723e9 	stp	x9, x8, [sp, #112]
   823f0:	b00000e9 	adrp	x9, 9f000 <_ZN17ruspiro_allocator6memory10HEAP_START17h21640eff129da783E.llvm.11358094369807046016>
   823f4:	9112c129 	add	x9, x9, #0x4b0
   823f8:	a903abe9 	stp	x9, x10, [sp, #56]
   823fc:	b00000aa 	adrp	x10, 97000 <_ZN4core7unicode12unicode_data15grapheme_extend7OFFSETS17hbef86ff8a98b3e98E+0x4d0>
   82400:	9101c3e9 	add	x9, sp, #0x70
   82404:	f943314a 	ldr	x10, [x10, #1632]
   82408:	a90923eb 	stp	x11, x8, [sp, #144]
   8240c:	a901ffff 	stp	xzr, xzr, [sp, #24]
   82410:	a904abe9 	stp	x9, x10, [sp, #72]
   82414:	b00000e9 	adrp	x9, 9f000 <_ZN17ruspiro_allocator6memory10HEAP_START17h21640eff129da783E.llvm.11358094369807046016>
   82418:	91120129 	add	x9, x9, #0x480
   8241c:	a900a3e9 	stp	x9, x8, [sp, #8]
   82420:	9100e3e8 	add	x8, sp, #0x38
   82424:	52800049 	mov	w9, #0x2                   	// #2
   82428:	a902a7e8 	stp	x8, x9, [sp, #40]
   8242c:	1400001b 	b	82498 <rust_begin_unwind+0x128>
   82430:	b00000e8 	adrp	x8, 9f000 <_ZN17ruspiro_allocator6memory10HEAP_START17h21640eff129da783E.llvm.11358094369807046016>
   82434:	52800029 	mov	w9, #0x1                   	// #1
   82438:	91130108 	add	x8, x8, #0x4c0
   8243c:	f0ffffea 	adrp	x10, 81000 <_ZN5alloc11collections5btree6remove259_$LT$impl$u20$alloc..collections..btree..node..Handle$LT$alloc..collections..btree..node..NodeRef$LT$alloc..collections..btree..node..marker..Mut$C$K$C$V$C$alloc..collections..btree..node..marker..Leaf$GT$$C$alloc..collections..btree..node..marker..KV$GT$$GT$14remove_leaf_kv17hbcbd10e49eab67d3E+0x250>
   82440:	912b614a 	add	x10, x10, #0xad8
   82444:	a90b7fff 	stp	xzr, xzr, [sp, #176]
   82448:	9101c3e0 	add	x0, sp, #0x70
   8244c:	a90a27e8 	stp	x8, x9, [sp, #160]
   82450:	b00000e9 	adrp	x9, 9f000 <_ZN17ruspiro_allocator6memory10HEAP_START17h21640eff129da783E.llvm.11358094369807046016>
   82454:	9112c129 	add	x9, x9, #0x4b0
   82458:	d0000088 	adrp	x8, 94000 <anon.98868c38ea5667d973ab3dd5b7fa8ab3.16.llvm.5513183134649085050+0x30>
   8245c:	91154108 	add	x8, x8, #0x550
   82460:	a900abe9 	stp	x9, x10, [sp, #8]
   82464:	b00000aa 	adrp	x10, 97000 <_ZN4core7unicode12unicode_data15grapheme_extend7OFFSETS17hbef86ff8a98b3e98E+0x4d0>
   82468:	910283e9 	add	x9, sp, #0xa0
   8246c:	f943314a 	ldr	x10, [x10, #1632]
   82470:	a90c7fe8 	stp	x8, xzr, [sp, #192]
   82474:	52800068 	mov	w8, #0x3                   	// #3
   82478:	a9087fff 	stp	xzr, xzr, [sp, #128]
   8247c:	a901abe9 	stp	x9, x10, [sp, #24]
   82480:	b00000e9 	adrp	x9, 9f000 <_ZN17ruspiro_allocator6memory10HEAP_START17h21640eff129da783E.llvm.11358094369807046016>
   82484:	91120129 	add	x9, x9, #0x480
   82488:	a90723e9 	stp	x9, x8, [sp, #112]
   8248c:	910023e8 	add	x8, sp, #0x8
   82490:	52800049 	mov	w9, #0x2                   	// #2
   82494:	a90927e8 	stp	x8, x9, [sp, #144]
   82498:	94002224 	bl	8ad28 <_ZN15ruspiro_console6_print17ha7e8cfe4d23036e3E>
   8249c:	14000000 	b	8249c <rust_begin_unwind+0x12c>

00000000000824a0 <_ZN4core3ptr13drop_in_place17h4576d59320bfb37bE.llvm.11273535593952876975>:
   824a0:	f81e0ffe 	str	x30, [sp, #-32]!
   824a4:	a9014ff4 	stp	x20, x19, [sp, #16]
   824a8:	aa0003f3 	mov	x19, x0
   824ac:	39400008 	ldrb	w8, [x0]
   824b0:	7100111f 	cmp	w8, #0x4
   824b4:	540008a0 	b.eq	825c8 <_ZN4core3ptr13drop_in_place17h4576d59320bfb37bE.llvm.11273535593952876975+0x128>  // b.none
   824b8:	71000d1f 	cmp	w8, #0x3
   824bc:	54000a21 	b.ne	82600 <_ZN4core3ptr13drop_in_place17h4576d59320bfb37bE.llvm.11273535593952876975+0x160>  // b.any
   824c0:	39424268 	ldrb	w8, [x19, #144]
   824c4:	71000d1f 	cmp	w8, #0x3
   824c8:	540009c1 	b.ne	82600 <_ZN4core3ptr13drop_in_place17h4576d59320bfb37bE.llvm.11273535593952876975+0x160>  // b.any
   824cc:	39422268 	ldrb	w8, [x19, #136]
   824d0:	91004274 	add	x20, x19, #0x10
   824d4:	71000d1f 	cmp	w8, #0x3
   824d8:	540003a1 	b.ne	8254c <_ZN4core3ptr13drop_in_place17h4576d59320bfb37bE.llvm.11273535593952876975+0xac>  // b.any
   824dc:	39420268 	ldrb	w8, [x19, #128]
   824e0:	71000d1f 	cmp	w8, #0x3
   824e4:	54000341 	b.ne	8254c <_ZN4core3ptr13drop_in_place17h4576d59320bfb37bE.llvm.11273535593952876975+0xac>  // b.any
   824e8:	aa1303e0 	mov	x0, x19
   824ec:	f8468c08 	ldr	x8, [x0, #104]!
   824f0:	c85f7d09 	ldxr	x9, [x8]
   824f4:	f1000529 	subs	x9, x9, #0x1
   824f8:	c80afd09 	stlxr	w10, x9, [x8]
   824fc:	35ffffaa 	cbnz	w10, 824f0 <_ZN4core3ptr13drop_in_place17h4576d59320bfb37bE.llvm.11273535593952876975+0x50>
   82500:	54000061 	b.ne	8250c <_ZN4core3ptr13drop_in_place17h4576d59320bfb37bE.llvm.11273535593952876975+0x6c>  // b.any
   82504:	d50339bf 	dmb	ishld
   82508:	97fffde4 	bl	81c98 <_ZN5alloc4sync12Arc$LT$T$GT$9drop_slow17h88b736e9c5a0f676E>
   8250c:	aa1303e0 	mov	x0, x19
   82510:	f8470c08 	ldr	x8, [x0, #112]!
   82514:	c85f7d09 	ldxr	x9, [x8]
   82518:	f1000529 	subs	x9, x9, #0x1
   8251c:	c80afd09 	stlxr	w10, x9, [x8]
   82520:	35ffffaa 	cbnz	w10, 82514 <_ZN4core3ptr13drop_in_place17h4576d59320bfb37bE.llvm.11273535593952876975+0x74>
   82524:	54000061 	b.ne	82530 <_ZN4core3ptr13drop_in_place17h4576d59320bfb37bE.llvm.11273535593952876975+0x90>  // b.any
   82528:	d50339bf 	dmb	ishld
   8252c:	97fffdf1 	bl	81cf0 <_ZN5alloc4sync12Arc$LT$T$GT$9drop_slow17h8b8a38d3078e78ecE>
   82530:	f9402e68 	ldr	x8, [x19, #88]
   82534:	b40000a8 	cbz	x8, 82548 <_ZN4core3ptr13drop_in_place17h4576d59320bfb37bE.llvm.11273535593952876975+0xa8>
   82538:	089ffd1f 	stlrb	wzr, [x8]
   8253c:	d5033fbf 	dmb	sy
   82540:	d5033f9f 	dsb	sy
   82544:	d503209f 	sev
   82548:	3902067f 	strb	wzr, [x19, #129]
   8254c:	aa1403e0 	mov	x0, x20
   82550:	940003b8 	bl	83430 <_ZN69_$LT$ruspiro_vchiq..state..State$u20$as$u20$core..ops..drop..Drop$GT$4drop17h1748a9673dfd0c5cE>
   82554:	aa1303e0 	mov	x0, x19
   82558:	f8420c08 	ldr	x8, [x0, #32]!
   8255c:	c85f7d09 	ldxr	x9, [x8]
   82560:	f1000529 	subs	x9, x9, #0x1
   82564:	c80afd09 	stlxr	w10, x9, [x8]
   82568:	35ffffaa 	cbnz	w10, 8255c <_ZN4core3ptr13drop_in_place17h4576d59320bfb37bE.llvm.11273535593952876975+0xbc>
   8256c:	54000061 	b.ne	82578 <_ZN4core3ptr13drop_in_place17h4576d59320bfb37bE.llvm.11273535593952876975+0xd8>  // b.any
   82570:	d50339bf 	dmb	ishld
   82574:	97fffdc9 	bl	81c98 <_ZN5alloc4sync12Arc$LT$T$GT$9drop_slow17h88b736e9c5a0f676E>
   82578:	aa1303e0 	mov	x0, x19
   8257c:	f8428c08 	ldr	x8, [x0, #40]!
   82580:	c85f7d09 	ldxr	x9, [x8]
   82584:	f1000529 	subs	x9, x9, #0x1
   82588:	c80afd09 	stlxr	w10, x9, [x8]
   8258c:	35ffffaa 	cbnz	w10, 82580 <_ZN4core3ptr13drop_in_place17h4576d59320bfb37bE.llvm.11273535593952876975+0xe0>
   82590:	54000061 	b.ne	8259c <_ZN4core3ptr13drop_in_place17h4576d59320bfb37bE.llvm.11273535593952876975+0xfc>  // b.any
   82594:	d50339bf 	dmb	ishld
   82598:	97fffd56 	bl	81af0 <_ZN5alloc4sync12Arc$LT$T$GT$9drop_slow17h0eba922a58fb0d78E>
   8259c:	f8430e68 	ldr	x8, [x19, #48]!
   825a0:	c85f7d09 	ldxr	x9, [x8]
   825a4:	f1000529 	subs	x9, x9, #0x1
   825a8:	c80afd09 	stlxr	w10, x9, [x8]
   825ac:	35ffffaa 	cbnz	w10, 825a0 <_ZN4core3ptr13drop_in_place17h4576d59320bfb37bE.llvm.11273535593952876975+0x100>
   825b0:	54000281 	b.ne	82600 <_ZN4core3ptr13drop_in_place17h4576d59320bfb37bE.llvm.11273535593952876975+0x160>  // b.any
   825b4:	d50339bf 	dmb	ishld
   825b8:	aa1303e0 	mov	x0, x19
   825bc:	a9414ff4 	ldp	x20, x19, [sp, #16]
   825c0:	f84207fe 	ldr	x30, [sp], #32
   825c4:	17fffd8d 	b	81bf8 <_ZN5alloc4sync12Arc$LT$T$GT$9drop_slow17h4e6edc9d48cc36a0E>
   825c8:	91002274 	add	x20, x19, #0x8
   825cc:	aa1403e0 	mov	x0, x20
   825d0:	94001366 	bl	87368 <_ZN80_$LT$ruspiro_vchiq..instance..VchiqInstance$u20$as$u20$core..ops..drop..Drop$GT$4drop17h2ae7d947728eac20E>
   825d4:	f9400668 	ldr	x8, [x19, #8]
   825d8:	c85f7d09 	ldxr	x9, [x8]
   825dc:	f1000529 	subs	x9, x9, #0x1
   825e0:	c80afd09 	stlxr	w10, x9, [x8]
   825e4:	35ffffaa 	cbnz	w10, 825d8 <_ZN4core3ptr13drop_in_place17h4576d59320bfb37bE.llvm.11273535593952876975+0x138>
   825e8:	540000c1 	b.ne	82600 <_ZN4core3ptr13drop_in_place17h4576d59320bfb37bE.llvm.11273535593952876975+0x160>  // b.any
   825ec:	d50339bf 	dmb	ishld
   825f0:	aa1403e0 	mov	x0, x20
   825f4:	a9414ff4 	ldp	x20, x19, [sp, #16]
   825f8:	f84207fe 	ldr	x30, [sp], #32
   825fc:	17fffd4b 	b	81b28 <_ZN5alloc4sync12Arc$LT$T$GT$9drop_slow17h2177e060ee23f88eE>
   82600:	a9414ff4 	ldp	x20, x19, [sp, #16]
   82604:	f84207fe 	ldr	x30, [sp], #32
   82608:	d65f03c0 	ret
   8260c:	00000000 	.inst	0x00000000 ; undefined

0000000000082610 <_ZN4core3ptr13drop_in_place17h49932d3db5c5c180E.llvm.11273535593952876975>:
   82610:	aa0003e8 	mov	x8, x0
   82614:	f9400000 	ldr	x0, [x0]
   82618:	b40000a0 	cbz	x0, 8262c <_ZN4core3ptr13drop_in_place17h49932d3db5c5c180E.llvm.11273535593952876975+0x1c>
   8261c:	f9400501 	ldr	x1, [x8, #8]
   82620:	b4000061 	cbz	x1, 8262c <_ZN4core3ptr13drop_in_place17h49932d3db5c5c180E.llvm.11273535593952876975+0x1c>
   82624:	52800022 	mov	w2, #0x1                   	// #1
   82628:	1400035e 	b	833a0 <__rust_dealloc>
   8262c:	d65f03c0 	ret

0000000000082630 <_ZN4core3ptr13drop_in_place17hd6d6c97df9a98338E.llvm.11273535593952876975>:
   82630:	39404008 	ldrb	w8, [x0, #16]
   82634:	71000d1f 	cmp	w8, #0x3
   82638:	54000140 	b.eq	82660 <_ZN4core3ptr13drop_in_place17hd6d6c97df9a98338E.llvm.11273535593952876975+0x30>  // b.none
   8263c:	35000228 	cbnz	w8, 82680 <_ZN4core3ptr13drop_in_place17hd6d6c97df9a98338E.llvm.11273535593952876975+0x50>
   82640:	f9400008 	ldr	x8, [x0]
   82644:	c85f7d09 	ldxr	x9, [x8]
   82648:	f1000529 	subs	x9, x9, #0x1
   8264c:	c80afd09 	stlxr	w10, x9, [x8]
   82650:	35ffffaa 	cbnz	w10, 82644 <_ZN4core3ptr13drop_in_place17hd6d6c97df9a98338E.llvm.11273535593952876975+0x14>
   82654:	54000161 	b.ne	82680 <_ZN4core3ptr13drop_in_place17hd6d6c97df9a98338E.llvm.11273535593952876975+0x50>  // b.any
   82658:	d50339bf 	dmb	ishld
   8265c:	17fffd33 	b	81b28 <_ZN5alloc4sync12Arc$LT$T$GT$9drop_slow17h2177e060ee23f88eE>
   82660:	f8408c08 	ldr	x8, [x0, #8]!
   82664:	c85f7d09 	ldxr	x9, [x8]
   82668:	f1000529 	subs	x9, x9, #0x1
   8266c:	c80afd09 	stlxr	w10, x9, [x8]
   82670:	35ffffaa 	cbnz	w10, 82664 <_ZN4core3ptr13drop_in_place17hd6d6c97df9a98338E.llvm.11273535593952876975+0x34>
   82674:	54000061 	b.ne	82680 <_ZN4core3ptr13drop_in_place17hd6d6c97df9a98338E.llvm.11273535593952876975+0x50>  // b.any
   82678:	d50339bf 	dmb	ishld
   8267c:	17fffd2b 	b	81b28 <_ZN5alloc4sync12Arc$LT$T$GT$9drop_slow17h2177e060ee23f88eE>
   82680:	d65f03c0 	ret
   82684:	00000000 	.inst	0x00000000 ; undefined

0000000000082688 <_ZN67_$LT$alloc..boxed..Box$LT$T$C$A$GT$$u20$as$u20$core..fmt..Debug$GT$3fmt17h9395b1a027d44848E>:
   82688:	a9402000 	ldp	x0, x8, [x0]
   8268c:	f9401502 	ldr	x2, [x8, #40]
   82690:	d61f0040 	br	x2
   82694:	00000000 	.inst	0x00000000 ; undefined

0000000000082698 <_ZN13ruspiro_error5Error6source17hb28e683830fce03eE>:
   82698:	aa1f03e0 	mov	x0, xzr
   8269c:	aa1f03e1 	mov	x1, xzr
   826a0:	d65f03c0 	ret
   826a4:	00000000 	.inst	0x00000000 ; undefined

00000000000826a8 <_ZN4core3fmt5Write10write_char17h7b2edac01790372bE.llvm.9057111803606188557>:
   826a8:	f81f0ffe 	str	x30, [sp, #-16]!
   826ac:	7102003f 	cmp	w1, #0x80
   826b0:	b9000fff 	str	wzr, [sp, #12]
   826b4:	540000e2 	b.cs	826d0 <_ZN4core3fmt5Write10write_char17h7b2edac01790372bE.llvm.9057111803606188557+0x28>  // b.hs, b.nlast
   826b8:	52800022 	mov	w2, #0x1                   	// #1
   826bc:	390033e1 	strb	w1, [sp, #12]
   826c0:	910033e1 	add	x1, sp, #0xc
   826c4:	94001ffd 	bl	8a6b8 <_ZN63_$LT$ruspiro_uart..uart1..Uart1$u20$as$u20$core..fmt..Write$GT$9write_str17hfb2f2fba006dd5a5E>
   826c8:	f84107fe 	ldr	x30, [sp], #16
   826cc:	d65f03c0 	ret
   826d0:	7120003f 	cmp	w1, #0x800
   826d4:	54000182 	b.cs	82704 <_ZN4core3fmt5Write10write_char17h7b2edac01790372bE.llvm.9057111803606188557+0x5c>  // b.hs, b.nlast
   826d8:	53067c28 	lsr	w8, w1, #6
   826dc:	52801009 	mov	w9, #0x80                  	// #128
   826e0:	321a0508 	orr	w8, w8, #0xc0
   826e4:	33001429 	bfxil	w9, w1, #0, #6
   826e8:	52800042 	mov	w2, #0x2                   	// #2
   826ec:	390037e9 	strb	w9, [sp, #13]
   826f0:	390033e8 	strb	w8, [sp, #12]
   826f4:	910033e1 	add	x1, sp, #0xc
   826f8:	94001ff0 	bl	8a6b8 <_ZN63_$LT$ruspiro_uart..uart1..Uart1$u20$as$u20$core..fmt..Write$GT$9write_str17hfb2f2fba006dd5a5E>
   826fc:	f84107fe 	ldr	x30, [sp], #16
   82700:	d65f03c0 	ret
   82704:	7140403f 	cmp	w1, #0x10, lsl #12
   82708:	540001e2 	b.cs	82744 <_ZN4core3fmt5Write10write_char17h7b2edac01790372bE.llvm.9057111803606188557+0x9c>  // b.hs, b.nlast
   8270c:	530c7c28 	lsr	w8, w1, #12
   82710:	52801009 	mov	w9, #0x80                  	// #128
   82714:	321b0908 	orr	w8, w8, #0xe0
   82718:	5280100a 	mov	w10, #0x80                  	// #128
   8271c:	33062c2a 	bfxil	w10, w1, #6, #6
   82720:	33001429 	bfxil	w9, w1, #0, #6
   82724:	52800062 	mov	w2, #0x3                   	// #3
   82728:	390033e8 	strb	w8, [sp, #12]
   8272c:	390037ea 	strb	w10, [sp, #13]
   82730:	39003be9 	strb	w9, [sp, #14]
   82734:	910033e1 	add	x1, sp, #0xc
   82738:	94001fe0 	bl	8a6b8 <_ZN63_$LT$ruspiro_uart..uart1..Uart1$u20$as$u20$core..fmt..Write$GT$9write_str17hfb2f2fba006dd5a5E>
   8273c:	f84107fe 	ldr	x30, [sp], #16
   82740:	d65f03c0 	ret
   82744:	53127c28 	lsr	w8, w1, #18
   82748:	52801009 	mov	w9, #0x80                  	// #128
   8274c:	321c0d08 	orr	w8, w8, #0xf0
   82750:	5280100a 	mov	w10, #0x80                  	// #128
   82754:	5280100b 	mov	w11, #0x80                  	// #128
   82758:	52800082 	mov	w2, #0x4                   	// #4
   8275c:	330c4429 	bfxil	w9, w1, #12, #6
   82760:	33062c2b 	bfxil	w11, w1, #6, #6
   82764:	3300142a 	bfxil	w10, w1, #0, #6
   82768:	390033e8 	strb	w8, [sp, #12]
   8276c:	390037e9 	strb	w9, [sp, #13]
   82770:	39003beb 	strb	w11, [sp, #14]
   82774:	39003fea 	strb	w10, [sp, #15]
   82778:	910033e1 	add	x1, sp, #0xc
   8277c:	94001fcf 	bl	8a6b8 <_ZN63_$LT$ruspiro_uart..uart1..Uart1$u20$as$u20$core..fmt..Write$GT$9write_str17hfb2f2fba006dd5a5E>
   82780:	f84107fe 	ldr	x30, [sp], #16
   82784:	d65f03c0 	ret

0000000000082788 <_ZN4core3fmt5Write9write_fmt17h572c4dbd9025000aE.llvm.9057111803606188557>:
   82788:	d10103ff 	sub	sp, sp, #0x40
   8278c:	a90303fe 	stp	x30, x0, [sp, #48]
   82790:	910003e0 	mov	x0, sp
   82794:	52800602 	mov	w2, #0x30                  	// #48
   82798:	94001bc0 	bl	89698 <memcpy>
   8279c:	b00000e1 	adrp	x1, 9f000 <_ZN17ruspiro_allocator6memory10HEAP_START17h21640eff129da783E.llvm.11358094369807046016>
   827a0:	9100e3e0 	add	x0, sp, #0x38
   827a4:	91168021 	add	x1, x1, #0x5a0
   827a8:	910003e2 	mov	x2, sp
   827ac:	94003509 	bl	8fbd0 <_ZN4core3fmt5write17hc1c57cb43223ebd1E>
   827b0:	f9401bfe 	ldr	x30, [sp, #48]
   827b4:	910103ff 	add	sp, sp, #0x40
   827b8:	d65f03c0 	ret
   827bc:	00000000 	.inst	0x00000000 ; undefined

00000000000827c0 <_ZN4core3ptr13drop_in_place17h418d26fa5b684e62E.llvm.9057111803606188557>:
   827c0:	14001fa4 	b	8a650 <_ZN68_$LT$ruspiro_uart..uart1..Uart1$u20$as$u20$core..ops..drop..Drop$GT$4drop17h5eae231bdd404bb9E>
   827c4:	00000000 	.inst	0x00000000 ; undefined

00000000000827c8 <_ZN4core3ptr13drop_in_place17h9dc8e0d5d5b20777E>:
   827c8:	d65f03c0 	ret
   827cc:	00000000 	.inst	0x00000000 ; undefined

00000000000827d0 <_ZN50_$LT$$RF$mut$u20$W$u20$as$u20$core..fmt..Write$GT$10write_char17h4cf8dbc35fb9a2f3E>:
   827d0:	f81f0ffe 	str	x30, [sp, #-16]!
   827d4:	f9400000 	ldr	x0, [x0]
   827d8:	7102003f 	cmp	w1, #0x80
   827dc:	b9000fff 	str	wzr, [sp, #12]
   827e0:	540000e2 	b.cs	827fc <_ZN50_$LT$$RF$mut$u20$W$u20$as$u20$core..fmt..Write$GT$10write_char17h4cf8dbc35fb9a2f3E+0x2c>  // b.hs, b.nlast
   827e4:	52800022 	mov	w2, #0x1                   	// #1
   827e8:	390033e1 	strb	w1, [sp, #12]
   827ec:	910033e1 	add	x1, sp, #0xc
   827f0:	94001fb2 	bl	8a6b8 <_ZN63_$LT$ruspiro_uart..uart1..Uart1$u20$as$u20$core..fmt..Write$GT$9write_str17hfb2f2fba006dd5a5E>
   827f4:	f84107fe 	ldr	x30, [sp], #16
   827f8:	d65f03c0 	ret
   827fc:	7120003f 	cmp	w1, #0x800
   82800:	54000182 	b.cs	82830 <_ZN50_$LT$$RF$mut$u20$W$u20$as$u20$core..fmt..Write$GT$10write_char17h4cf8dbc35fb9a2f3E+0x60>  // b.hs, b.nlast
   82804:	53067c28 	lsr	w8, w1, #6
   82808:	52801009 	mov	w9, #0x80                  	// #128
   8280c:	321a0508 	orr	w8, w8, #0xc0
   82810:	33001429 	bfxil	w9, w1, #0, #6
   82814:	52800042 	mov	w2, #0x2                   	// #2
   82818:	390037e9 	strb	w9, [sp, #13]
   8281c:	390033e8 	strb	w8, [sp, #12]
   82820:	910033e1 	add	x1, sp, #0xc
   82824:	94001fa5 	bl	8a6b8 <_ZN63_$LT$ruspiro_uart..uart1..Uart1$u20$as$u20$core..fmt..Write$GT$9write_str17hfb2f2fba006dd5a5E>
   82828:	f84107fe 	ldr	x30, [sp], #16
   8282c:	d65f03c0 	ret
   82830:	7140403f 	cmp	w1, #0x10, lsl #12
   82834:	540001e2 	b.cs	82870 <_ZN50_$LT$$RF$mut$u20$W$u20$as$u20$core..fmt..Write$GT$10write_char17h4cf8dbc35fb9a2f3E+0xa0>  // b.hs, b.nlast
   82838:	530c7c28 	lsr	w8, w1, #12
   8283c:	52801009 	mov	w9, #0x80                  	// #128
   82840:	321b0908 	orr	w8, w8, #0xe0
   82844:	5280100a 	mov	w10, #0x80                  	// #128
   82848:	33062c2a 	bfxil	w10, w1, #6, #6
   8284c:	33001429 	bfxil	w9, w1, #0, #6
   82850:	52800062 	mov	w2, #0x3                   	// #3
   82854:	390033e8 	strb	w8, [sp, #12]
   82858:	390037ea 	strb	w10, [sp, #13]
   8285c:	39003be9 	strb	w9, [sp, #14]
   82860:	910033e1 	add	x1, sp, #0xc
   82864:	94001f95 	bl	8a6b8 <_ZN63_$LT$ruspiro_uart..uart1..Uart1$u20$as$u20$core..fmt..Write$GT$9write_str17hfb2f2fba006dd5a5E>
   82868:	f84107fe 	ldr	x30, [sp], #16
   8286c:	d65f03c0 	ret
   82870:	53127c28 	lsr	w8, w1, #18
   82874:	52801009 	mov	w9, #0x80                  	// #128
   82878:	321c0d08 	orr	w8, w8, #0xf0
   8287c:	5280100a 	mov	w10, #0x80                  	// #128
   82880:	5280100b 	mov	w11, #0x80                  	// #128
   82884:	52800082 	mov	w2, #0x4                   	// #4
   82888:	330c4429 	bfxil	w9, w1, #12, #6
   8288c:	33062c2b 	bfxil	w11, w1, #6, #6
   82890:	3300142a 	bfxil	w10, w1, #0, #6
   82894:	390033e8 	strb	w8, [sp, #12]
   82898:	390037e9 	strb	w9, [sp, #13]
   8289c:	39003beb 	strb	w11, [sp, #14]
   828a0:	39003fea 	strb	w10, [sp, #15]
   828a4:	910033e1 	add	x1, sp, #0xc
   828a8:	94001f84 	bl	8a6b8 <_ZN63_$LT$ruspiro_uart..uart1..Uart1$u20$as$u20$core..fmt..Write$GT$9write_str17hfb2f2fba006dd5a5E>
   828ac:	f84107fe 	ldr	x30, [sp], #16
   828b0:	d65f03c0 	ret
   828b4:	00000000 	.inst	0x00000000 ; undefined

00000000000828b8 <_ZN50_$LT$$RF$mut$u20$W$u20$as$u20$core..fmt..Write$GT$9write_fmt17hb4fafa24e286c452E>:
   828b8:	d10103ff 	sub	sp, sp, #0x40
   828bc:	f9400008 	ldr	x8, [x0]
   828c0:	910003e0 	mov	x0, sp
   828c4:	52800602 	mov	w2, #0x30                  	// #48
   828c8:	a90323fe 	stp	x30, x8, [sp, #48]
   828cc:	94001b73 	bl	89698 <memcpy>
   828d0:	b00000e1 	adrp	x1, 9f000 <_ZN17ruspiro_allocator6memory10HEAP_START17h21640eff129da783E.llvm.11358094369807046016>
   828d4:	9100e3e0 	add	x0, sp, #0x38
   828d8:	91168021 	add	x1, x1, #0x5a0
   828dc:	910003e2 	mov	x2, sp
   828e0:	940034bc 	bl	8fbd0 <_ZN4core3fmt5write17hc1c57cb43223ebd1E>
   828e4:	f9401bfe 	ldr	x30, [sp, #48]
   828e8:	910103ff 	add	sp, sp, #0x40
   828ec:	d65f03c0 	ret

00000000000828f0 <_ZN50_$LT$$RF$mut$u20$W$u20$as$u20$core..fmt..Write$GT$9write_str17h655c1e0974cb957bE>:
   828f0:	f9400000 	ldr	x0, [x0]
   828f4:	14001f71 	b	8a6b8 <_ZN63_$LT$ruspiro_uart..uart1..Uart1$u20$as$u20$core..fmt..Write$GT$9write_str17hfb2f2fba006dd5a5E>

00000000000828f8 <_ZN4core3ptr13drop_in_place17h16598f9657395b1eE>:
   828f8:	a9bf4ffe 	stp	x30, x19, [sp, #-16]!
   828fc:	aa0003f3 	mov	x19, x0
   82900:	a9402000 	ldp	x0, x8, [x0]
   82904:	f9400108 	ldr	x8, [x8]
   82908:	d63f0100 	blr	x8
   8290c:	f9400668 	ldr	x8, [x19, #8]
   82910:	f9400501 	ldr	x1, [x8, #8]
   82914:	b40000a1 	cbz	x1, 82928 <_ZN4core3ptr13drop_in_place17h16598f9657395b1eE+0x30>
   82918:	f9400260 	ldr	x0, [x19]
   8291c:	f9400902 	ldr	x2, [x8, #16]
   82920:	a8c14ffe 	ldp	x30, x19, [sp], #16
   82924:	1400029f 	b	833a0 <__rust_dealloc>
   82928:	a8c14ffe 	ldp	x30, x19, [sp], #16
   8292c:	d65f03c0 	ret

0000000000082930 <_ZN97_$LT$core..future..from_generator..GenFuture$LT$T$GT$$u20$as$u20$core..future..future..Future$GT$4poll17h31a36f1229c6319dE>:
   82930:	d10683ff 	sub	sp, sp, #0x1a0
   82934:	a9147bfd 	stp	x29, x30, [sp, #320]
   82938:	b00000bd 	adrp	x29, 97000 <_ZN4core7unicode12unicode_data15grapheme_extend7OFFSETS17hbef86ff8a98b3e98E+0x4d0>
   8293c:	a9156ffc 	stp	x28, x27, [sp, #336]
   82940:	d0000088 	adrp	x8, 94000 <anon.98868c38ea5667d973ab3dd5b7fa8ab3.16.llvm.5513183134649085050+0x30>
   82944:	a91667fa 	stp	x26, x25, [sp, #352]
   82948:	91157108 	add	x8, x8, #0x55c
   8294c:	a9175ff8 	stp	x24, x23, [sp, #368]
   82950:	d000009b 	adrp	x27, 94000 <anon.98868c38ea5667d973ab3dd5b7fa8ab3.16.llvm.5513183134649085050+0x30>
   82954:	a91857f6 	stp	x22, x21, [sp, #384]
   82958:	b00000fc 	adrp	x28, 9f000 <_ZN17ruspiro_allocator6memory10HEAP_START17h21640eff129da783E.llvm.11358094369807046016>
   8295c:	a9194ff4 	stp	x20, x19, [sp, #400]
   82960:	f0fffffa 	adrp	x26, 81000 <_ZN5alloc11collections5btree6remove259_$LT$impl$u20$alloc..collections..btree..node..Handle$LT$alloc..collections..btree..node..NodeRef$LT$alloc..collections..btree..node..marker..Mut$C$K$C$V$C$alloc..collections..btree..node..marker..Leaf$GT$$C$alloc..collections..btree..node..marker..KV$GT$$GT$14remove_leaf_kv17hbcbd10e49eab67d3E+0x250>
   82964:	39400009 	ldrb	w9, [x0]
   82968:	b00000f7 	adrp	x23, 9f000 <_ZN17ruspiro_allocator6memory10HEAP_START17h21640eff129da783E.llvm.11358094369807046016>
   8296c:	f94333bd 	ldr	x29, [x29, #1632]
   82970:	b00000f8 	adrp	x24, 9f000 <_ZN17ruspiro_allocator6memory10HEAP_START17h21640eff129da783E.llvm.11358094369807046016>
   82974:	aa0103f5 	mov	x21, x1
   82978:	aa0003f3 	mov	x19, x0
   8297c:	911aa37b 	add	x27, x27, #0x6a8
   82980:	9119839c 	add	x28, x28, #0x660
   82984:	100000ea 	adr	x10, 829a0 <_ZN97_$LT$core..future..from_generator..GenFuture$LT$T$GT$$u20$as$u20$core..future..future..Future$GT$4poll17h31a36f1229c6319dE+0x70>
   82988:	7869790b 	ldrh	w11, [x8, x9, lsl #1]
   8298c:	8b0b094a 	add	x10, x10, x11, lsl #2
   82990:	912b635a 	add	x26, x26, #0xad8
   82994:	9118c2f7 	add	x23, x23, #0x630
   82998:	911b8318 	add	x24, x24, #0x6e0
   8299c:	d61f0140 	br	x10
   829a0:	b00000e8 	adrp	x8, 9f000 <_ZN17ruspiro_allocator6memory10HEAP_START17h21640eff129da783E.llvm.11358094369807046016>
   829a4:	52800029 	mov	w9, #0x1                   	// #1
   829a8:	911bc108 	add	x8, x8, #0x6f0
   829ac:	9103c3e0 	add	x0, sp, #0xf0
   829b0:	a9027fff 	stp	xzr, xzr, [sp, #32]
   829b4:	a9037ffb 	stp	x27, xzr, [sp, #48]
   829b8:	a90127e8 	stp	x8, x9, [sp, #16]
   829bc:	910043e8 	add	x8, sp, #0x10
   829c0:	52800069 	mov	w9, #0x3                   	// #3
   829c4:	a90c6bf8 	stp	x24, x26, [sp, #192]
   829c8:	a9107fff 	stp	xzr, xzr, [sp, #256]
   829cc:	a90d77e8 	stp	x8, x29, [sp, #208]
   829d0:	910303e8 	add	x8, sp, #0xc0
   829d4:	a90f27f7 	stp	x23, x9, [sp, #240]
   829d8:	52800049 	mov	w9, #0x2                   	// #2
   829dc:	a91127e8 	stp	x8, x9, [sp, #272]
   829e0:	940020d2 	bl	8ad28 <_ZN15ruspiro_console6_print17ha7e8cfe4d23036e3E>
   829e4:	910043e8 	add	x8, sp, #0x10
   829e8:	9400125c 	bl	87358 <_ZN13ruspiro_vchiq8instance13VchiqInstance3new17hb47f24a9eedb6289E>
   829ec:	91004260 	add	x0, x19, #0x10
   829f0:	52801202 	mov	w2, #0x90                  	// #144
   829f4:	910043e1 	add	x1, sp, #0x10
   829f8:	94001b28 	bl	89698 <memcpy>
   829fc:	39424268 	ldrb	w8, [x19, #144]
   82a00:	91004274 	add	x20, x19, #0x10
   82a04:	34000248 	cbz	w8, 82a4c <_ZN97_$LT$core..future..from_generator..GenFuture$LT$T$GT$$u20$as$u20$core..future..future..Future$GT$4poll17h31a36f1229c6319dE+0x11c>
   82a08:	71000d1f 	cmp	w8, #0x3
   82a0c:	54003601 	b.ne	830cc <_ZN97_$LT$core..future..from_generator..GenFuture$LT$T$GT$$u20$as$u20$core..future..future..Future$GT$4poll17h31a36f1229c6319dE+0x79c>  // b.any
   82a10:	39422268 	ldrb	w8, [x19, #136]
   82a14:	34000828 	cbz	w8, 82b18 <_ZN97_$LT$core..future..from_generator..GenFuture$LT$T$GT$$u20$as$u20$core..future..future..Future$GT$4poll17h31a36f1229c6319dE+0x1e8>
   82a18:	71000d1f 	cmp	w8, #0x3
   82a1c:	54003661 	b.ne	830e8 <_ZN97_$LT$core..future..from_generator..GenFuture$LT$T$GT$$u20$as$u20$core..future..future..Future$GT$4poll17h31a36f1229c6319dE+0x7b8>  // b.any
   82a20:	aa1303f7 	mov	x23, x19
   82a24:	38480ee8 	ldrb	w8, [x23, #128]!
   82a28:	d100c2fc 	sub	x28, x23, #0x30
   82a2c:	340008a8 	cbz	w8, 82b40 <_ZN97_$LT$core..future..from_generator..GenFuture$LT$T$GT$$u20$as$u20$core..future..future..Future$GT$4poll17h31a36f1229c6319dE+0x210>
   82a30:	71000d1f 	cmp	w8, #0x3
   82a34:	540039c1 	b.ne	8316c <_ZN97_$LT$core..future..from_generator..GenFuture$LT$T$GT$$u20$as$u20$core..future..future..Future$GT$4poll17h31a36f1229c6319dE+0x83c>  // b.any
   82a38:	aa1303f6 	mov	x22, x19
   82a3c:	f8470ec8 	ldr	x8, [x22, #112]!
   82a40:	14000072 	b	82c08 <_ZN97_$LT$core..future..from_generator..GenFuture$LT$T$GT$$u20$as$u20$core..future..future..Future$GT$4poll17h31a36f1229c6319dE+0x2d8>
   82a44:	39408261 	ldrb	w1, [x19, #32]
   82a48:	1400014c 	b	82f78 <_ZN97_$LT$core..future..from_generator..GenFuture$LT$T$GT$$u20$as$u20$core..future..future..Future$GT$4poll17h31a36f1229c6319dE+0x648>
   82a4c:	b00000e8 	adrp	x8, 9f000 <_ZN17ruspiro_allocator6memory10HEAP_START17h21640eff129da783E.llvm.11358094369807046016>
   82a50:	52800029 	mov	w9, #0x1                   	// #1
   82a54:	9119c108 	add	x8, x8, #0x670
   82a58:	9103c3f8 	add	x24, sp, #0xf0
   82a5c:	910303e0 	add	x0, sp, #0xc0
   82a60:	a9107fff 	stp	xzr, xzr, [sp, #256]
   82a64:	a9117ffb 	stp	x27, xzr, [sp, #272]
   82a68:	aa1c03f9 	mov	x25, x28
   82a6c:	a90f27e8 	stp	x8, x9, [sp, #240]
   82a70:	52800068 	mov	w8, #0x3                   	// #3
   82a74:	52800049 	mov	w9, #0x2                   	// #2
   82a78:	a90a6bfc 	stp	x28, x26, [sp, #160]
   82a7c:	aa1a03fb 	mov	x27, x26
   82a80:	a90b77f8 	stp	x24, x29, [sp, #176]
   82a84:	a90c23f7 	stp	x23, x8, [sp, #192]
   82a88:	910283e8 	add	x8, sp, #0xa0
   82a8c:	aa1703fa 	mov	x26, x23
   82a90:	a90d7fff 	stp	xzr, xzr, [sp, #208]
   82a94:	a90e27e8 	stp	x8, x9, [sp, #224]
   82a98:	940020a4 	bl	8ad28 <_ZN15ruspiro_console6_print17ha7e8cfe4d23036e3E>
   82a9c:	9103c3e8 	add	x8, sp, #0xf0
   82aa0:	94000284 	bl	834b0 <_ZN13ruspiro_vchiq5state5State3new17hf822d2a3dabc11b1E>
   82aa4:	a94f5ffc 	ldp	x28, x23, [sp, #240]
   82aa8:	91006301 	add	x1, x24, #0x18
   82aac:	52800502 	mov	w2, #0x28                  	// #40
   82ab0:	f94083f6 	ldr	x22, [sp, #256]
   82ab4:	910303e0 	add	x0, sp, #0xc0
   82ab8:	94001af8 	bl	89698 <memcpy>
   82abc:	f100079f 	cmp	x28, #0x1
   82ac0:	54003f60 	b.eq	832ac <_ZN97_$LT$core..future..from_generator..GenFuture$LT$T$GT$$u20$as$u20$core..future..future..Future$GT$4poll17h31a36f1229c6319dE+0x97c>  // b.none
   82ac4:	91006260 	add	x0, x19, #0x18
   82ac8:	52800502 	mov	w2, #0x28                  	// #40
   82acc:	910303e1 	add	x1, sp, #0xc0
   82ad0:	f9000a76 	str	x22, [x19, #16]
   82ad4:	94001af1 	bl	89698 <memcpy>
   82ad8:	9103c3e8 	add	x8, sp, #0xf0
   82adc:	aa1403e0 	mov	x0, x20
   82ae0:	9400058e 	bl	84118 <_ZN13ruspiro_vchiq5state5State10initialize17hde2aec5ac1910e0eE>
   82ae4:	91010260 	add	x0, x19, #0x40
   82ae8:	52800a02 	mov	w2, #0x50                  	// #80
   82aec:	9103c3e1 	add	x1, sp, #0xf0
   82af0:	94001aea 	bl	89698 <memcpy>
   82af4:	b00000f8 	adrp	x24, 9f000 <_ZN17ruspiro_allocator6memory10HEAP_START17h21640eff129da783E.llvm.11358094369807046016>
   82af8:	aa1a03f7 	mov	x23, x26
   82afc:	aa1b03fa 	mov	x26, x27
   82b00:	d000009b 	adrp	x27, 94000 <anon.98868c38ea5667d973ab3dd5b7fa8ab3.16.llvm.5513183134649085050+0x30>
   82b04:	911b8318 	add	x24, x24, #0x6e0
   82b08:	911aa37b 	add	x27, x27, #0x6a8
   82b0c:	aa1903fc 	mov	x28, x25
   82b10:	39422268 	ldrb	w8, [x19, #136]
   82b14:	35fff828 	cbnz	w8, 82a18 <_ZN97_$LT$core..future..from_generator..GenFuture$LT$T$GT$$u20$as$u20$core..future..future..Future$GT$4poll17h31a36f1229c6319dE+0xe8>
   82b18:	f9402268 	ldr	x8, [x19, #64]
   82b1c:	f9002668 	str	x8, [x19, #72]
   82b20:	3940a109 	ldrb	w9, [x8, #40]
   82b24:	350019e9 	cbnz	w9, 82e60 <_ZN97_$LT$core..future..from_generator..GenFuture$LT$T$GT$$u20$as$u20$core..future..future..Future$GT$4poll17h31a36f1229c6319dE+0x530>
   82b28:	f9401108 	ldr	x8, [x8, #32]
   82b2c:	aa1303fc 	mov	x28, x19
   82b30:	91004108 	add	x8, x8, #0x10
   82b34:	f8050f88 	str	x8, [x28, #80]!
   82b38:	aa1c03f7 	mov	x23, x28
   82b3c:	38030eff 	strb	wzr, [x23, #48]!
   82b40:	f9400388 	ldr	x8, [x28]
   82b44:	5280002a 	mov	w10, #0x1                   	// #1
   82b48:	3900c79f 	strb	wzr, [x28, #49]
   82b4c:	f9400509 	ldr	x9, [x8, #8]
   82b50:	3900c78a 	strb	w10, [x28, #49]
   82b54:	9100413d 	add	x29, x9, #0x10
   82b58:	085fffa9 	ldaxrb	w9, [x29]
   82b5c:	080b7faa 	stxrb	w11, w10, [x29]
   82b60:	35ffffcb 	cbnz	w11, 82b58 <_ZN97_$LT$core..future..from_generator..GenFuture$LT$T$GT$$u20$as$u20$core..future..future..Future$GT$4poll17h31a36f1229c6319dE+0x228>
   82b64:	34000d69 	cbz	w9, 82d10 <_ZN97_$LT$core..future..from_generator..GenFuture$LT$T$GT$$u20$as$u20$core..future..future..Future$GT$4poll17h31a36f1229c6319dE+0x3e0>
   82b68:	f9002e7f 	str	xzr, [x19, #88]
   82b6c:	5280002b 	mov	w11, #0x1                   	// #1
   82b70:	f9400109 	ldr	x9, [x8]
   82b74:	9100412a 	add	x10, x9, #0x10
   82b78:	085ffd4c 	ldaxrb	w12, [x10]
   82b7c:	080d7d4b 	stxrb	w13, w11, [x10]
   82b80:	35ffffcd 	cbnz	w13, 82b78 <_ZN97_$LT$core..future..from_generator..GenFuture$LT$T$GT$$u20$as$u20$core..future..future..Future$GT$4poll17h31a36f1229c6319dE+0x248>
   82b84:	340000ec 	cbz	w12, 82ba0 <_ZN97_$LT$core..future..from_generator..GenFuture$LT$T$GT$$u20$as$u20$core..future..future..Future$GT$4poll17h31a36f1229c6319dE+0x270>
   82b88:	5280002b 	mov	w11, #0x1                   	// #1
   82b8c:	d503205f 	wfe
   82b90:	085ffd4c 	ldaxrb	w12, [x10]
   82b94:	080d7d4b 	stxrb	w13, w11, [x10]
   82b98:	35ffffcd 	cbnz	w13, 82b90 <_ZN97_$LT$core..future..from_generator..GenFuture$LT$T$GT$$u20$as$u20$core..future..future..Future$GT$4poll17h31a36f1229c6319dE+0x260>
   82b9c:	35ffff8c 	cbnz	w12, 82b8c <_ZN97_$LT$core..future..from_generator..GenFuture$LT$T$GT$$u20$as$u20$core..future..future..Future$GT$4poll17h31a36f1229c6319dE+0x25c>
   82ba0:	d5033fbf 	dmb	sy
   82ba4:	f900326a 	str	x10, [x19, #96]
   82ba8:	f940192a 	ldr	x10, [x9, #48]
   82bac:	9100054b 	add	x11, x10, #0x1
   82bb0:	f900192b 	str	x11, [x9, #48]
   82bb4:	f9403269 	ldr	x9, [x19, #96]
   82bb8:	089ffd3f 	stlrb	wzr, [x9]
   82bbc:	d5033fbf 	dmb	sy
   82bc0:	d5033f9f 	dsb	sy
   82bc4:	d503209f 	sev
   82bc8:	f9400109 	ldr	x9, [x8]
   82bcc:	c85f7d2b 	ldxr	x11, [x9]
   82bd0:	9100056c 	add	x12, x11, #0x1
   82bd4:	c80d7d2c 	stxr	w13, x12, [x9]
   82bd8:	35ffffad 	cbnz	w13, 82bcc <_ZN97_$LT$core..future..from_generator..GenFuture$LT$T$GT$$u20$as$u20$core..future..future..Future$GT$4poll17h31a36f1229c6319dE+0x29c>
   82bdc:	b7f8294b 	tbnz	x11, #63, 83104 <_ZN97_$LT$core..future..from_generator..GenFuture$LT$T$GT$$u20$as$u20$core..future..future..Future$GT$4poll17h31a36f1229c6319dE+0x7d4>
   82be0:	f9400508 	ldr	x8, [x8, #8]
   82be4:	c85f7d0b 	ldxr	x11, [x8]
   82be8:	9100056c 	add	x12, x11, #0x1
   82bec:	c80d7d0c 	stxr	w13, x12, [x8]
   82bf0:	35ffffad 	cbnz	w13, 82be4 <_ZN97_$LT$core..future..from_generator..GenFuture$LT$T$GT$$u20$as$u20$core..future..future..Future$GT$4poll17h31a36f1229c6319dE+0x2b4>
   82bf4:	b7f8288b 	tbnz	x11, #63, 83104 <_ZN97_$LT$core..future..from_generator..GenFuture$LT$T$GT$$u20$as$u20$core..future..future..Future$GT$4poll17h31a36f1229c6319dE+0x7d4>
   82bf8:	aa1303f6 	mov	x22, x19
   82bfc:	f8070ec8 	str	x8, [x22, #112]!
   82c00:	f81f82c9 	stur	x9, [x22, #-8]
   82c04:	f90006ca 	str	x10, [x22, #8]
   82c08:	9101a260 	add	x0, x19, #0x68
   82c0c:	9100411d 	add	x29, x8, #0x10
   82c10:	52800028 	mov	w8, #0x1                   	// #1
   82c14:	085fffa9 	ldaxrb	w9, [x29]
   82c18:	080a7fa8 	stxrb	w10, w8, [x29]
   82c1c:	35ffffca 	cbnz	w10, 82c14 <_ZN97_$LT$core..future..from_generator..GenFuture$LT$T$GT$$u20$as$u20$core..future..future..Future$GT$4poll17h31a36f1229c6319dE+0x2e4>
   82c20:	aa1803f9 	mov	x25, x24
   82c24:	34000449 	cbz	w9, 82cac <_ZN97_$LT$core..future..from_generator..GenFuture$LT$T$GT$$u20$as$u20$core..future..future..Future$GT$4poll17h31a36f1229c6319dE+0x37c>
   82c28:	f9400008 	ldr	x8, [x0]
   82c2c:	52800029 	mov	w9, #0x1                   	// #1
   82c30:	91004118 	add	x24, x8, #0x10
   82c34:	085fff0a 	ldaxrb	w10, [x24]
   82c38:	080b7f09 	stxrb	w11, w9, [x24]
   82c3c:	35ffffcb 	cbnz	w11, 82c34 <_ZN97_$LT$core..future..from_generator..GenFuture$LT$T$GT$$u20$as$u20$core..future..future..Future$GT$4poll17h31a36f1229c6319dE+0x304>
   82c40:	340000ea 	cbz	w10, 82c5c <_ZN97_$LT$core..future..from_generator..GenFuture$LT$T$GT$$u20$as$u20$core..future..future..Future$GT$4poll17h31a36f1229c6319dE+0x32c>
   82c44:	52800029 	mov	w9, #0x1                   	// #1
   82c48:	d503205f 	wfe
   82c4c:	085fff0a 	ldaxrb	w10, [x24]
   82c50:	080b7f09 	stxrb	w11, w9, [x24]
   82c54:	35ffffcb 	cbnz	w11, 82c4c <_ZN97_$LT$core..future..from_generator..GenFuture$LT$T$GT$$u20$as$u20$core..future..future..Future$GT$4poll17h31a36f1229c6319dE+0x31c>
   82c58:	35ffff8a 	cbnz	w10, 82c48 <_ZN97_$LT$core..future..from_generator..GenFuture$LT$T$GT$$u20$as$u20$core..future..future..Future$GT$4poll17h31a36f1229c6319dE+0x318>
   82c5c:	d5033fbf 	dmb	sy
   82c60:	f94002a9 	ldr	x9, [x21]
   82c64:	f9403e75 	ldr	x21, [x19, #120]
   82c68:	91006116 	add	x22, x8, #0x18
   82c6c:	a9402920 	ldp	x0, x10, [x9]
   82c70:	f9400149 	ldr	x9, [x10]
   82c74:	d63f0120 	blr	x9
   82c78:	aa0003e2 	mov	x2, x0
   82c7c:	aa0103e3 	mov	x3, x1
   82c80:	aa1603e0 	mov	x0, x22
   82c84:	aa1503e1 	mov	x1, x21
   82c88:	97fff992 	bl	812d0 <_ZN5alloc11collections5btree3map21BTreeMap$LT$K$C$V$GT$6insert17h6ae9863a11b33902E>
   82c8c:	b4001f41 	cbz	x1, 83074 <_ZN97_$LT$core..future..from_generator..GenFuture$LT$T$GT$$u20$as$u20$core..future..future..Future$GT$4poll17h31a36f1229c6319dE+0x744>
   82c90:	f9400c28 	ldr	x8, [x1, #24]
   82c94:	d63f0100 	blr	x8
   82c98:	089fff1f 	stlrb	wzr, [x24]
   82c9c:	d5033fbf 	dmb	sy
   82ca0:	d5033f9f 	dsb	sy
   82ca4:	d503209f 	sev
   82ca8:	140000f7 	b	83084 <_ZN97_$LT$core..future..from_generator..GenFuture$LT$T$GT$$u20$as$u20$core..future..future..Future$GT$4poll17h31a36f1229c6319dE+0x754>
   82cac:	d5033fbf 	dmb	sy
   82cb0:	f9400018 	ldr	x24, [x0]
   82cb4:	c85f7f08 	ldxr	x8, [x24]
   82cb8:	91000509 	add	x9, x8, #0x1
   82cbc:	c80a7f09 	stxr	w10, x9, [x24]
   82cc0:	35ffffaa 	cbnz	w10, 82cb4 <_ZN97_$LT$core..future..from_generator..GenFuture$LT$T$GT$$u20$as$u20$core..future..future..Future$GT$4poll17h31a36f1229c6319dE+0x384>
   82cc4:	b7f82208 	tbnz	x8, #63, 83104 <_ZN97_$LT$core..future..from_generator..GenFuture$LT$T$GT$$u20$as$u20$core..future..future..Future$GT$4poll17h31a36f1229c6319dE+0x7d4>
   82cc8:	f9400008 	ldr	x8, [x0]
   82ccc:	c85f7d09 	ldxr	x9, [x8]
   82cd0:	f1000529 	subs	x9, x9, #0x1
   82cd4:	c80afd09 	stlxr	w10, x9, [x8]
   82cd8:	35ffffaa 	cbnz	w10, 82ccc <_ZN97_$LT$core..future..from_generator..GenFuture$LT$T$GT$$u20$as$u20$core..future..future..Future$GT$4poll17h31a36f1229c6319dE+0x39c>
   82cdc:	54000061 	b.ne	82ce8 <_ZN97_$LT$core..future..from_generator..GenFuture$LT$T$GT$$u20$as$u20$core..future..future..Future$GT$4poll17h31a36f1229c6319dE+0x3b8>  // b.any
   82ce0:	d50339bf 	dmb	ishld
   82ce4:	97fffbed 	bl	81c98 <_ZN5alloc4sync12Arc$LT$T$GT$9drop_slow17h88b736e9c5a0f676E>
   82ce8:	f9403a68 	ldr	x8, [x19, #112]
   82cec:	c85f7d09 	ldxr	x9, [x8]
   82cf0:	f1000529 	subs	x9, x9, #0x1
   82cf4:	c80afd09 	stlxr	w10, x9, [x8]
   82cf8:	35ffffaa 	cbnz	w10, 82cec <_ZN97_$LT$core..future..from_generator..GenFuture$LT$T$GT$$u20$as$u20$core..future..future..Future$GT$4poll17h31a36f1229c6319dE+0x3bc>
   82cfc:	540001e1 	b.ne	82d38 <_ZN97_$LT$core..future..from_generator..GenFuture$LT$T$GT$$u20$as$u20$core..future..future..Future$GT$4poll17h31a36f1229c6319dE+0x408>  // b.any
   82d00:	aa1603e0 	mov	x0, x22
   82d04:	d50339bf 	dmb	ishld
   82d08:	97fffbfa 	bl	81cf0 <_ZN5alloc4sync12Arc$LT$T$GT$9drop_slow17h8b8a38d3078e78ecE>
   82d0c:	1400000b 	b	82d38 <_ZN97_$LT$core..future..from_generator..GenFuture$LT$T$GT$$u20$as$u20$core..future..future..Future$GT$4poll17h31a36f1229c6319dE+0x408>
   82d10:	d5033fbf 	dmb	sy
   82d14:	f9002e7d 	str	x29, [x19, #88]
   82d18:	3900c79f 	strb	wzr, [x28, #49]
   82d1c:	aa1803f9 	mov	x25, x24
   82d20:	f9400118 	ldr	x24, [x8]
   82d24:	c85f7f08 	ldxr	x8, [x24]
   82d28:	91000509 	add	x9, x8, #0x1
   82d2c:	c80a7f09 	stxr	w10, x9, [x24]
   82d30:	35ffffaa 	cbnz	w10, 82d24 <_ZN97_$LT$core..future..from_generator..GenFuture$LT$T$GT$$u20$as$u20$core..future..future..Future$GT$4poll17h31a36f1229c6319dE+0x3f4>
   82d34:	b7f81e88 	tbnz	x8, #63, 83104 <_ZN97_$LT$core..future..from_generator..GenFuture$LT$T$GT$$u20$as$u20$core..future..future..Future$GT$4poll17h31a36f1229c6319dE+0x7d4>
   82d38:	f9402e68 	ldr	x8, [x19, #88]
   82d3c:	b40000e8 	cbz	x8, 82d58 <_ZN97_$LT$core..future..from_generator..GenFuture$LT$T$GT$$u20$as$u20$core..future..future..Future$GT$4poll17h31a36f1229c6319dE+0x428>
   82d40:	3940c789 	ldrb	w9, [x28, #49]
   82d44:	340000a9 	cbz	w9, 82d58 <_ZN97_$LT$core..future..from_generator..GenFuture$LT$T$GT$$u20$as$u20$core..future..future..Future$GT$4poll17h31a36f1229c6319dE+0x428>
   82d48:	089ffd1f 	stlrb	wzr, [x8]
   82d4c:	d5033fbf 	dmb	sy
   82d50:	d5033f9f 	dsb	sy
   82d54:	d503209f 	sev
   82d58:	52800029 	mov	w9, #0x1                   	// #1
   82d5c:	2a1f03e8 	mov	w8, wzr
   82d60:	3900c79f 	strb	wzr, [x28, #49]
   82d64:	390002e9 	strb	w9, [x23]
   82d68:	b40019bd 	cbz	x29, 8309c <_ZN97_$LT$core..future..from_generator..GenFuture$LT$T$GT$$u20$as$u20$core..future..future..Future$GT$4poll17h31a36f1229c6319dE+0x76c>
   82d6c:	910303e9 	add	x9, sp, #0xc0
   82d70:	a90c63fd 	stp	x29, x24, [sp, #192]
   82d74:	91002135 	add	x21, x9, #0x8
   82d78:	360003a8 	tbz	w8, #0, 82dec <_ZN97_$LT$core..future..from_generator..GenFuture$LT$T$GT$$u20$as$u20$core..future..future..Future$GT$4poll17h31a36f1229c6319dE+0x4bc>
   82d7c:	aa1303e0 	mov	x0, x19
   82d80:	aa1903f8 	mov	x24, x25
   82d84:	f8468c08 	ldr	x8, [x0, #104]!
   82d88:	c85f7d09 	ldxr	x9, [x8]
   82d8c:	f1000529 	subs	x9, x9, #0x1
   82d90:	c80afd09 	stlxr	w10, x9, [x8]
   82d94:	35ffffaa 	cbnz	w10, 82d88 <_ZN97_$LT$core..future..from_generator..GenFuture$LT$T$GT$$u20$as$u20$core..future..future..Future$GT$4poll17h31a36f1229c6319dE+0x458>
   82d98:	54000061 	b.ne	82da4 <_ZN97_$LT$core..future..from_generator..GenFuture$LT$T$GT$$u20$as$u20$core..future..future..Future$GT$4poll17h31a36f1229c6319dE+0x474>  // b.any
   82d9c:	d50339bf 	dmb	ishld
   82da0:	97fffbbe 	bl	81c98 <_ZN5alloc4sync12Arc$LT$T$GT$9drop_slow17h88b736e9c5a0f676E>
   82da4:	aa1303e0 	mov	x0, x19
   82da8:	f8470c08 	ldr	x8, [x0, #112]!
   82dac:	c85f7d09 	ldxr	x9, [x8]
   82db0:	f1000529 	subs	x9, x9, #0x1
   82db4:	c80afd09 	stlxr	w10, x9, [x8]
   82db8:	35ffffaa 	cbnz	w10, 82dac <_ZN97_$LT$core..future..from_generator..GenFuture$LT$T$GT$$u20$as$u20$core..future..future..Future$GT$4poll17h31a36f1229c6319dE+0x47c>
   82dbc:	54000061 	b.ne	82dc8 <_ZN97_$LT$core..future..from_generator..GenFuture$LT$T$GT$$u20$as$u20$core..future..future..Future$GT$4poll17h31a36f1229c6319dE+0x498>  // b.any
   82dc0:	d50339bf 	dmb	ishld
   82dc4:	97fffbcb 	bl	81cf0 <_ZN5alloc4sync12Arc$LT$T$GT$9drop_slow17h8b8a38d3078e78ecE>
   82dc8:	f9402e68 	ldr	x8, [x19, #88]
   82dcc:	b40000a8 	cbz	x8, 82de0 <_ZN97_$LT$core..future..from_generator..GenFuture$LT$T$GT$$u20$as$u20$core..future..future..Future$GT$4poll17h31a36f1229c6319dE+0x4b0>
   82dd0:	089ffd1f 	stlrb	wzr, [x8]
   82dd4:	d5033fbf 	dmb	sy
   82dd8:	d5033f9f 	dsb	sy
   82ddc:	d503209f 	sev
   82de0:	f94063fd 	ldr	x29, [sp, #192]
   82de4:	3900c79f 	strb	wzr, [x28, #49]
   82de8:	14000002 	b	82df0 <_ZN97_$LT$core..future..from_generator..GenFuture$LT$T$GT$$u20$as$u20$core..future..future..Future$GT$4poll17h31a36f1229c6319dE+0x4c0>
   82dec:	aa1903f8 	mov	x24, x25
   82df0:	910043a0 	add	x0, x29, #0x10
   82df4:	940004cd 	bl	84128 <_ZN13ruspiro_vchiq5state10StateInner10initialize17hd9fe533dd811cc9cE>
   82df8:	b00000fc 	adrp	x28, 9f000 <_ZN17ruspiro_allocator6memory10HEAP_START17h21640eff129da783E.llvm.11358094369807046016>
   82dfc:	9119839c 	add	x28, x28, #0x660
   82e00:	b5001f20 	cbnz	x0, 831e4 <_ZN97_$LT$core..future..from_generator..GenFuture$LT$T$GT$$u20$as$u20$core..future..future..Future$GT$4poll17h31a36f1229c6319dE+0x8b4>
   82e04:	f9402668 	ldr	x8, [x19, #72]
   82e08:	52800029 	mov	w9, #0x1                   	// #1
   82e0c:	910303e0 	add	x0, sp, #0xc0
   82e10:	3900a109 	strb	w9, [x8, #40]
   82e14:	97fffa15 	bl	81668 <_ZN99_$LT$ruspiro_lock..async..asyncmutex..AsyncMutexGuard$LT$T$GT$$u20$as$u20$core..ops..drop..Drop$GT$4drop17hf2ee4ba6f212bfe9E>
   82e18:	f94063e8 	ldr	x8, [sp, #192]
   82e1c:	b00000bd 	adrp	x29, 97000 <_ZN4core7unicode12unicode_data15grapheme_extend7OFFSETS17hbef86ff8a98b3e98E+0x4d0>
   82e20:	089ffd1f 	stlrb	wzr, [x8]
   82e24:	d5033fbf 	dmb	sy
   82e28:	d5033f9f 	dsb	sy
   82e2c:	d503209f 	sev
   82e30:	f94067e8 	ldr	x8, [sp, #200]
   82e34:	f94333bd 	ldr	x29, [x29, #1632]
   82e38:	c85f7d09 	ldxr	x9, [x8]
   82e3c:	f1000529 	subs	x9, x9, #0x1
   82e40:	c80afd09 	stlxr	w10, x9, [x8]
   82e44:	35ffffaa 	cbnz	w10, 82e38 <_ZN97_$LT$core..future..from_generator..GenFuture$LT$T$GT$$u20$as$u20$core..future..future..Future$GT$4poll17h31a36f1229c6319dE+0x508>
   82e48:	b00000f7 	adrp	x23, 9f000 <_ZN17ruspiro_allocator6memory10HEAP_START17h21640eff129da783E.llvm.11358094369807046016>
   82e4c:	9118c2f7 	add	x23, x23, #0x630
   82e50:	54000081 	b.ne	82e60 <_ZN97_$LT$core..future..from_generator..GenFuture$LT$T$GT$$u20$as$u20$core..future..future..Future$GT$4poll17h31a36f1229c6319dE+0x530>  // b.any
   82e54:	aa1503e0 	mov	x0, x21
   82e58:	d50339bf 	dmb	ishld
   82e5c:	97fffb8f 	bl	81c98 <_ZN5alloc4sync12Arc$LT$T$GT$9drop_slow17h88b736e9c5a0f676E>
   82e60:	ad400680 	ldp	q0, q1, [x20]
   82e64:	52800028 	mov	w8, #0x1                   	// #1
   82e68:	52800800 	mov	w0, #0x40                  	// #64
   82e6c:	3dc00a82 	ldr	q2, [x20, #32]
   82e70:	52800201 	mov	w1, #0x10                  	// #16
   82e74:	39022268 	strb	w8, [x19, #136]
   82e78:	ad0787e0 	stp	q0, q1, [sp, #240]
   82e7c:	3d8047e2 	str	q2, [sp, #272]
   82e80:	94000146 	bl	83398 <__rust_alloc>
   82e84:	b4001820 	cbz	x0, 83188 <_ZN97_$LT$core..future..from_generator..GenFuture$LT$T$GT$$u20$as$u20$core..future..future..Future$GT$4poll17h31a36f1229c6319dE+0x858>
   82e88:	52800028 	mov	w8, #0x1                   	// #1
   82e8c:	3dc047e3 	ldr	q3, [sp, #272]
   82e90:	ad478be1 	ldp	q1, q2, [sp, #240]
   82e94:	aa0003f4 	mov	x20, x0
   82e98:	4e080d00 	dup	v0.2d, x8
   82e9c:	ad010c02 	stp	q2, q3, [x0, #32]
   82ea0:	ad000400 	stp	q0, q1, [x0]
   82ea4:	c85f7e88 	ldxr	x8, [x20]
   82ea8:	91000509 	add	x9, x8, #0x1
   82eac:	c80a7e89 	stxr	w10, x9, [x20]
   82eb0:	35ffffaa 	cbnz	w10, 82ea4 <_ZN97_$LT$core..future..from_generator..GenFuture$LT$T$GT$$u20$as$u20$core..future..future..Future$GT$4poll17h31a36f1229c6319dE+0x574>
   82eb4:	b7f81288 	tbnz	x8, #63, 83104 <_ZN97_$LT$core..future..from_generator..GenFuture$LT$T$GT$$u20$as$u20$core..future..future..Future$GT$4poll17h31a36f1229c6319dE+0x7d4>
   82eb8:	910303e8 	add	x8, sp, #0xc0
   82ebc:	aa1403e0 	mov	x0, x20
   82ec0:	94000818 	bl	84f20 <_ZN13ruspiro_vchiq11slothandler12slot_handler17h962e27bfec9df998E>
   82ec4:	b00000b5 	adrp	x21, 97000 <_ZN4core7unicode12unicode_data15grapheme_extend7OFFSETS17hbef86ff8a98b3e98E+0x4d0>
   82ec8:	f94336b5 	ldr	x21, [x21, #1640]
   82ecc:	394002a8 	ldrb	w8, [x21]
   82ed0:	72001d1f 	tst	w8, #0xff
   82ed4:	540000a0 	b.eq	82ee8 <_ZN97_$LT$core..future..from_generator..GenFuture$LT$T$GT$$u20$as$u20$core..future..future..Future$GT$4poll17h31a36f1229c6319dE+0x5b8>  // b.none
   82ed8:	d503205f 	wfe
   82edc:	394002a8 	ldrb	w8, [x21]
   82ee0:	72001d1f 	tst	w8, #0xff
   82ee4:	54ffffa1 	b.ne	82ed8 <_ZN97_$LT$core..future..from_generator..GenFuture$LT$T$GT$$u20$as$u20$core..future..future..Future$GT$4poll17h31a36f1229c6319dE+0x5a8>  // b.any
   82ee8:	910012a8 	add	x8, x21, #0x4
   82eec:	885ffd09 	ldaxr	w9, [x8]
   82ef0:	11000529 	add	w9, w9, #0x1
   82ef4:	880a7d09 	stxr	w10, w9, [x8]
   82ef8:	35ffffaa 	cbnz	w10, 82eec <_ZN97_$LT$core..future..from_generator..GenFuture$LT$T$GT$$u20$as$u20$core..future..future..Future$GT$4poll17h31a36f1229c6319dE+0x5bc>
   82efc:	a94c27e8 	ldp	x8, x9, [sp, #192]
   82f00:	52800300 	mov	w0, #0x18                  	// #24
   82f04:	52800101 	mov	w1, #0x8                   	// #8
   82f08:	f9406bea 	ldr	x10, [sp, #208]
   82f0c:	a90f27e8 	stp	x8, x9, [sp, #240]
   82f10:	f90083ea 	str	x10, [sp, #256]
   82f14:	94000121 	bl	83398 <__rust_alloc>
   82f18:	b4001220 	cbz	x0, 8315c <_ZN97_$LT$core..future..from_generator..GenFuture$LT$T$GT$$u20$as$u20$core..future..future..Future$GT$4poll17h31a36f1229c6319dE+0x82c>
   82f1c:	a94f27e8 	ldp	x8, x9, [sp, #240]
   82f20:	b00000e2 	adrp	x2, 9f000 <_ZN17ruspiro_allocator6memory10HEAP_START17h21640eff129da783E.llvm.11358094369807046016>
   82f24:	aa0003e1 	mov	x1, x0
   82f28:	f94083ea 	ldr	x10, [sp, #256]
   82f2c:	910022a0 	add	x0, x21, #0x8
   82f30:	91148042 	add	x2, x2, #0x520
   82f34:	a9002428 	stp	x8, x9, [x1]
   82f38:	f900082a 	str	x10, [x1, #16]
   82f3c:	94001c53 	bl	8a088 <_ZN13ruspiro_brain5Brain8think_on17h964d542122854114E>
   82f40:	910012a8 	add	x8, x21, #0x4
   82f44:	885f7d09 	ldxr	w9, [x8]
   82f48:	51000529 	sub	w9, w9, #0x1
   82f4c:	880afd09 	stlxr	w10, w9, [x8]
   82f50:	35ffff8a 	cbnz	w10, 82f40 <_ZN97_$LT$core..future..from_generator..GenFuture$LT$T$GT$$u20$as$u20$core..future..future..Future$GT$4poll17h31a36f1229c6319dE+0x610>
   82f54:	aa1303f5 	mov	x21, x19
   82f58:	52800028 	mov	w8, #0x1                   	// #1
   82f5c:	d5033fbf 	dmb	sy
   82f60:	f8008eb4 	str	x20, [x21, #8]!
   82f64:	aa1503e0 	mov	x0, x21
   82f68:	390222a8 	strb	w8, [x21, #136]
   82f6c:	390022bf 	strb	wzr, [x21, #8]
   82f70:	940010fc 	bl	87360 <_ZN13ruspiro_vchiq8instance13VchiqInstance7connect17h824cf07192017357E>
   82f74:	a90106a0 	stp	x0, x1, [x21, #16]
   82f78:	72001c3f 	tst	w1, #0xff
   82f7c:	54000c81 	b.ne	8310c <_ZN97_$LT$core..future..from_generator..GenFuture$LT$T$GT$$u20$as$u20$core..future..future..Future$GT$4poll17h31a36f1229c6319dE+0x7dc>  // b.any
   82f80:	b00000e8 	adrp	x8, 9f000 <_ZN17ruspiro_allocator6memory10HEAP_START17h21640eff129da783E.llvm.11358094369807046016>
   82f84:	52800034 	mov	w20, #0x1                   	// #1
   82f88:	911a6108 	add	x8, x8, #0x698
   82f8c:	f9400e75 	ldr	x21, [x19, #24]
   82f90:	910043f6 	add	x22, sp, #0x10
   82f94:	52800049 	mov	w9, #0x2                   	// #2
   82f98:	9103c3e0 	add	x0, sp, #0xf0
   82f9c:	a9027fff 	stp	xzr, xzr, [sp, #32]
   82fa0:	a90153e8 	stp	x8, x20, [sp, #16]
   82fa4:	52800068 	mov	w8, #0x3                   	// #3
   82fa8:	a9037ffb 	stp	x27, xzr, [sp, #48]
   82fac:	a90a6bfc 	stp	x28, x26, [sp, #160]
   82fb0:	a90f23f7 	stp	x23, x8, [sp, #240]
   82fb4:	910283e8 	add	x8, sp, #0xa0
   82fb8:	a90b77f6 	stp	x22, x29, [sp, #176]
   82fbc:	a9107fff 	stp	xzr, xzr, [sp, #256]
   82fc0:	a91127e8 	stp	x8, x9, [sp, #272]
   82fc4:	94001f59 	bl	8ad28 <_ZN15ruspiro_console6_print17ha7e8cfe4d23036e3E>
   82fc8:	394022a8 	ldrb	w8, [x21, #8]
   82fcc:	35000ae8 	cbnz	w8, 83128 <_ZN97_$LT$core..future..from_generator..GenFuture$LT$T$GT$$u20$as$u20$core..future..future..Future$GT$4poll17h31a36f1229c6319dE+0x7f8>
   82fd0:	b00000e8 	adrp	x8, 9f000 <_ZN17ruspiro_allocator6memory10HEAP_START17h21640eff129da783E.llvm.11358094369807046016>
   82fd4:	390022b4 	strb	w20, [x21, #8]
   82fd8:	911cc108 	add	x8, x8, #0x730
   82fdc:	39008274 	strb	w20, [x19, #32]
   82fe0:	910303e9 	add	x9, sp, #0xc0
   82fe4:	9103c3e0 	add	x0, sp, #0xf0
   82fe8:	a9027fff 	stp	xzr, xzr, [sp, #32]
   82fec:	a90153e8 	stp	x8, x20, [sp, #16]
   82ff0:	52800068 	mov	w8, #0x3                   	// #3
   82ff4:	a9037ffb 	stp	x27, xzr, [sp, #48]
   82ff8:	a90c6bf8 	stp	x24, x26, [sp, #192]
   82ffc:	a90f23f7 	stp	x23, x8, [sp, #240]
   83000:	52800048 	mov	w8, #0x2                   	// #2
   83004:	a90d77f6 	stp	x22, x29, [sp, #208]
   83008:	a9107fff 	stp	xzr, xzr, [sp, #256]
   8300c:	a91123e9 	stp	x9, x8, [sp, #272]
   83010:	94001f46 	bl	8ad28 <_ZN15ruspiro_console6_print17ha7e8cfe4d23036e3E>
   83014:	91002274 	add	x20, x19, #0x8
   83018:	aa1403e0 	mov	x0, x20
   8301c:	940010d3 	bl	87368 <_ZN80_$LT$ruspiro_vchiq..instance..VchiqInstance$u20$as$u20$core..ops..drop..Drop$GT$4drop17h2ae7d947728eac20E>
   83020:	f9400668 	ldr	x8, [x19, #8]
   83024:	c85f7d09 	ldxr	x9, [x8]
   83028:	d100052a 	sub	x10, x9, #0x1
   8302c:	c80bfd0a 	stlxr	w11, x10, [x8]
   83030:	35ffffab 	cbnz	w11, 83024 <_ZN97_$LT$core..future..from_generator..GenFuture$LT$T$GT$$u20$as$u20$core..future..future..Future$GT$4poll17h31a36f1229c6319dE+0x6f4>
   83034:	f100053f 	cmp	x9, #0x1
   83038:	54000081 	b.ne	83048 <_ZN97_$LT$core..future..from_generator..GenFuture$LT$T$GT$$u20$as$u20$core..future..future..Future$GT$4poll17h31a36f1229c6319dE+0x718>  // b.any
   8303c:	aa1403e0 	mov	x0, x20
   83040:	d50339bf 	dmb	ishld
   83044:	97fffab9 	bl	81b28 <_ZN5alloc4sync12Arc$LT$T$GT$9drop_slow17h2177e060ee23f88eE>
   83048:	2a1f03e0 	mov	w0, wzr
   8304c:	52800028 	mov	w8, #0x1                   	// #1
   83050:	39000268 	strb	w8, [x19]
   83054:	a9594ff4 	ldp	x20, x19, [sp, #400]
   83058:	a95857f6 	ldp	x22, x21, [sp, #384]
   8305c:	a9575ff8 	ldp	x24, x23, [sp, #368]
   83060:	a95667fa 	ldp	x26, x25, [sp, #352]
   83064:	a9556ffc 	ldp	x28, x27, [sp, #336]
   83068:	a9547bfd 	ldp	x29, x30, [sp, #320]
   8306c:	910683ff 	add	sp, sp, #0x1a0
   83070:	d65f03c0 	ret
   83074:	089fff1f 	stlrb	wzr, [x24]
   83078:	d5033fbf 	dmb	sy
   8307c:	d5033f9f 	dsb	sy
   83080:	d503209f 	sev
   83084:	aa1f03fd 	mov	x29, xzr
   83088:	aa1f03f8 	mov	x24, xzr
   8308c:	52800069 	mov	w9, #0x3                   	// #3
   83090:	52800028 	mov	w8, #0x1                   	// #1
   83094:	390002e9 	strb	w9, [x23]
   83098:	b5ffe6bd 	cbnz	x29, 82d6c <_ZN97_$LT$core..future..from_generator..GenFuture$LT$T$GT$$u20$as$u20$core..future..future..Future$GT$4poll17h31a36f1229c6319dE+0x43c>
   8309c:	52800068 	mov	w8, #0x3                   	// #3
   830a0:	52800020 	mov	w0, #0x1                   	// #1
   830a4:	39022268 	strb	w8, [x19, #136]
   830a8:	39024268 	strb	w8, [x19, #144]
   830ac:	17ffffe9 	b	83050 <_ZN97_$LT$core..future..from_generator..GenFuture$LT$T$GT$$u20$as$u20$core..future..future..Future$GT$4poll17h31a36f1229c6319dE+0x720>
   830b0:	b0000080 	adrp	x0, 94000 <anon.98868c38ea5667d973ab3dd5b7fa8ab3.16.llvm.5513183134649085050+0x30>
   830b4:	900000e2 	adrp	x2, 9f000 <_ZN17ruspiro_allocator6memory10HEAP_START17h21640eff129da783E.llvm.11358094369807046016>
   830b8:	9116c000 	add	x0, x0, #0x5b0
   830bc:	52800461 	mov	w1, #0x23                  	// #35
   830c0:	911b2042 	add	x2, x2, #0x6c8
   830c4:	94003283 	bl	8fad0 <_ZN4core9panicking5panic17h546310d45640065bE>
   830c8:	d4200020 	brk	#0x1
   830cc:	b0000080 	adrp	x0, 94000 <anon.98868c38ea5667d973ab3dd5b7fa8ab3.16.llvm.5513183134649085050+0x30>
   830d0:	900000e2 	adrp	x2, 9f000 <_ZN17ruspiro_allocator6memory10HEAP_START17h21640eff129da783E.llvm.11358094369807046016>
   830d4:	9116c000 	add	x0, x0, #0x5b0
   830d8:	52800461 	mov	w1, #0x23                  	// #35
   830dc:	91186042 	add	x2, x2, #0x618
   830e0:	9400327c 	bl	8fad0 <_ZN4core9panicking5panic17h546310d45640065bE>
   830e4:	d4200020 	brk	#0x1
   830e8:	b0000080 	adrp	x0, 94000 <anon.98868c38ea5667d973ab3dd5b7fa8ab3.16.llvm.5513183134649085050+0x30>
   830ec:	900000e2 	adrp	x2, 9f000 <_ZN17ruspiro_allocator6memory10HEAP_START17h21640eff129da783E.llvm.11358094369807046016>
   830f0:	9116c000 	add	x0, x0, #0x5b0
   830f4:	52800461 	mov	w1, #0x23                  	// #35
   830f8:	91180042 	add	x2, x2, #0x600
   830fc:	94003275 	bl	8fad0 <_ZN4core9panicking5panic17h546310d45640065bE>
   83100:	d4200020 	brk	#0x1
   83104:	d4200020 	brk	#0x1
   83108:	d4200020 	brk	#0x1
   8310c:	b0000080 	adrp	x0, 94000 <anon.98868c38ea5667d973ab3dd5b7fa8ab3.16.llvm.5513183134649085050+0x30>
   83110:	900000e2 	adrp	x2, 9f000 <_ZN17ruspiro_allocator6memory10HEAP_START17h21640eff129da783E.llvm.11358094369807046016>
   83114:	9116c000 	add	x0, x0, #0x5b0
   83118:	52800461 	mov	w1, #0x23                  	// #35
   8311c:	911a0042 	add	x2, x2, #0x680
   83120:	9400326c 	bl	8fad0 <_ZN4core9panicking5panic17h546310d45640065bE>
   83124:	d4200020 	brk	#0x1
   83128:	b0000080 	adrp	x0, 94000 <anon.98868c38ea5667d973ab3dd5b7fa8ab3.16.llvm.5513183134649085050+0x30>
   8312c:	528002e1 	mov	w1, #0x17                  	// #23
   83130:	911b1000 	add	x0, x0, #0x6c4
   83134:	9103c3e8 	add	x8, sp, #0xf0
   83138:	940025b0 	bl	8c7f8 <_ZN13ruspiro_error12GenericError12with_message17hd81e7569bc36b84eE>
   8313c:	a94f27e8 	ldp	x8, x9, [sp, #240]
   83140:	52800300 	mov	w0, #0x18                  	// #24
   83144:	52800101 	mov	w1, #0x8                   	// #8
   83148:	f94083ea 	ldr	x10, [sp, #256]
   8314c:	a90127e8 	stp	x8, x9, [sp, #16]
   83150:	f90013ea 	str	x10, [sp, #32]
   83154:	94000091 	bl	83398 <__rust_alloc>
   83158:	b5000200 	cbnz	x0, 83198 <_ZN97_$LT$core..future..from_generator..GenFuture$LT$T$GT$$u20$as$u20$core..future..future..Future$GT$4poll17h31a36f1229c6319dE+0x868>
   8315c:	52800300 	mov	w0, #0x18                  	// #24
   83160:	52800101 	mov	w1, #0x8                   	// #8
   83164:	940026dd 	bl	8ccd8 <_ZN5alloc5alloc18handle_alloc_error17h4609a7d668d8bcf9E>
   83168:	d4200020 	brk	#0x1
   8316c:	b0000080 	adrp	x0, 94000 <anon.98868c38ea5667d973ab3dd5b7fa8ab3.16.llvm.5513183134649085050+0x30>
   83170:	900000e2 	adrp	x2, 9f000 <_ZN17ruspiro_allocator6memory10HEAP_START17h21640eff129da783E.llvm.11358094369807046016>
   83174:	9116c000 	add	x0, x0, #0x5b0
   83178:	52800461 	mov	w1, #0x23                  	// #35
   8317c:	91174042 	add	x2, x2, #0x5d0
   83180:	94003254 	bl	8fad0 <_ZN4core9panicking5panic17h546310d45640065bE>
   83184:	d4200020 	brk	#0x1
   83188:	52800800 	mov	w0, #0x40                  	// #64
   8318c:	52800201 	mov	w1, #0x10                  	// #16
   83190:	940026d2 	bl	8ccd8 <_ZN5alloc5alloc18handle_alloc_error17h4609a7d668d8bcf9E>
   83194:	d4200020 	brk	#0x1
   83198:	a94127e8 	ldp	x8, x9, [sp, #16]
   8319c:	5280002b 	mov	w11, #0x1                   	// #1
   831a0:	900000e3 	adrp	x3, 9f000 <_ZN17ruspiro_allocator6memory10HEAP_START17h21640eff129da783E.llvm.11358094369807046016>
   831a4:	f94013ea 	ldr	x10, [sp, #32]
   831a8:	900000e4 	adrp	x4, 9f000 <_ZN17ruspiro_allocator6memory10HEAP_START17h21640eff129da783E.llvm.11358094369807046016>
   831ac:	911aa063 	add	x3, x3, #0x6a8
   831b0:	52800561 	mov	w1, #0x2b                  	// #43
   831b4:	a9002408 	stp	x8, x9, [x0]
   831b8:	900000e8 	adrp	x8, 9f000 <_ZN17ruspiro_allocator6memory10HEAP_START17h21640eff129da783E.llvm.11358094369807046016>
   831bc:	91150108 	add	x8, x8, #0x540
   831c0:	3900826b 	strb	w11, [x19, #32]
   831c4:	f900080a 	str	x10, [x0, #16]
   831c8:	911c6084 	add	x4, x4, #0x718
   831cc:	910043e2 	add	x2, sp, #0x10
   831d0:	a90123e0 	stp	x0, x8, [sp, #16]
   831d4:	b0000080 	adrp	x0, 94000 <anon.98868c38ea5667d973ab3dd5b7fa8ab3.16.llvm.5513183134649085050+0x30>
   831d8:	911b6c00 	add	x0, x0, #0x6db
   831dc:	94003225 	bl	8fa70 <_ZN4core6result13unwrap_failed17h6ecc0f20d79874b9E>
   831e0:	d4200020 	brk	#0x1
   831e4:	aa0003f7 	mov	x23, x0
   831e8:	910303e0 	add	x0, sp, #0xc0
   831ec:	aa0103f6 	mov	x22, x1
   831f0:	97fff91e 	bl	81668 <_ZN99_$LT$ruspiro_lock..async..asyncmutex..AsyncMutexGuard$LT$T$GT$$u20$as$u20$core..ops..drop..Drop$GT$4drop17hf2ee4ba6f212bfe9E>
   831f4:	f94063e8 	ldr	x8, [sp, #192]
   831f8:	089ffd1f 	stlrb	wzr, [x8]
   831fc:	d5033fbf 	dmb	sy
   83200:	d5033f9f 	dsb	sy
   83204:	d503209f 	sev
   83208:	f94067e8 	ldr	x8, [sp, #200]
   8320c:	c85f7d09 	ldxr	x9, [x8]
   83210:	f1000529 	subs	x9, x9, #0x1
   83214:	c80afd09 	stlxr	w10, x9, [x8]
   83218:	35ffffaa 	cbnz	w10, 8320c <_ZN97_$LT$core..future..from_generator..GenFuture$LT$T$GT$$u20$as$u20$core..future..future..Future$GT$4poll17h31a36f1229c6319dE+0x8dc>
   8321c:	54000081 	b.ne	8322c <_ZN97_$LT$core..future..from_generator..GenFuture$LT$T$GT$$u20$as$u20$core..future..future..Future$GT$4poll17h31a36f1229c6319dE+0x8fc>  // b.any
   83220:	aa1503e0 	mov	x0, x21
   83224:	d50339bf 	dmb	ishld
   83228:	97fffa9c 	bl	81c98 <_ZN5alloc4sync12Arc$LT$T$GT$9drop_slow17h88b736e9c5a0f676E>
   8322c:	52800028 	mov	w8, #0x1                   	// #1
   83230:	aa1403e0 	mov	x0, x20
   83234:	39022268 	strb	w8, [x19, #136]
   83238:	9400007e 	bl	83430 <_ZN69_$LT$ruspiro_vchiq..state..State$u20$as$u20$core..ops..drop..Drop$GT$4drop17h1748a9673dfd0c5cE>
   8323c:	aa1303e0 	mov	x0, x19
   83240:	f8420c08 	ldr	x8, [x0, #32]!
   83244:	c85f7d09 	ldxr	x9, [x8]
   83248:	f1000529 	subs	x9, x9, #0x1
   8324c:	c80afd09 	stlxr	w10, x9, [x8]
   83250:	35ffffaa 	cbnz	w10, 83244 <_ZN97_$LT$core..future..from_generator..GenFuture$LT$T$GT$$u20$as$u20$core..future..future..Future$GT$4poll17h31a36f1229c6319dE+0x914>
   83254:	54000061 	b.ne	83260 <_ZN97_$LT$core..future..from_generator..GenFuture$LT$T$GT$$u20$as$u20$core..future..future..Future$GT$4poll17h31a36f1229c6319dE+0x930>  // b.any
   83258:	d50339bf 	dmb	ishld
   8325c:	97fffa8f 	bl	81c98 <_ZN5alloc4sync12Arc$LT$T$GT$9drop_slow17h88b736e9c5a0f676E>
   83260:	aa1303e0 	mov	x0, x19
   83264:	f8428c08 	ldr	x8, [x0, #40]!
   83268:	c85f7d09 	ldxr	x9, [x8]
   8326c:	f1000529 	subs	x9, x9, #0x1
   83270:	c80afd09 	stlxr	w10, x9, [x8]
   83274:	35ffffaa 	cbnz	w10, 83268 <_ZN97_$LT$core..future..from_generator..GenFuture$LT$T$GT$$u20$as$u20$core..future..future..Future$GT$4poll17h31a36f1229c6319dE+0x938>
   83278:	54000061 	b.ne	83284 <_ZN97_$LT$core..future..from_generator..GenFuture$LT$T$GT$$u20$as$u20$core..future..future..Future$GT$4poll17h31a36f1229c6319dE+0x954>  // b.any
   8327c:	d50339bf 	dmb	ishld
   83280:	97fffa1c 	bl	81af0 <_ZN5alloc4sync12Arc$LT$T$GT$9drop_slow17h0eba922a58fb0d78E>
   83284:	aa1303e0 	mov	x0, x19
   83288:	f8430c08 	ldr	x8, [x0, #48]!
   8328c:	c85f7d09 	ldxr	x9, [x8]
   83290:	d100052a 	sub	x10, x9, #0x1
   83294:	c80bfd0a 	stlxr	w11, x10, [x8]
   83298:	35ffffab 	cbnz	w11, 8328c <_ZN97_$LT$core..future..from_generator..GenFuture$LT$T$GT$$u20$as$u20$core..future..future..Future$GT$4poll17h31a36f1229c6319dE+0x95c>
   8329c:	f100053f 	cmp	x9, #0x1
   832a0:	54000061 	b.ne	832ac <_ZN97_$LT$core..future..from_generator..GenFuture$LT$T$GT$$u20$as$u20$core..future..future..Future$GT$4poll17h31a36f1229c6319dE+0x97c>  // b.any
   832a4:	d50339bf 	dmb	ishld
   832a8:	97fffa54 	bl	81bf8 <_ZN5alloc4sync12Arc$LT$T$GT$9drop_slow17h4e6edc9d48cc36a0E>
   832ac:	b0000080 	adrp	x0, 94000 <anon.98868c38ea5667d973ab3dd5b7fa8ab3.16.llvm.5513183134649085050+0x30>
   832b0:	900000e3 	adrp	x3, 9f000 <_ZN17ruspiro_allocator6memory10HEAP_START17h21640eff129da783E.llvm.11358094369807046016>
   832b4:	900000e4 	adrp	x4, 9f000 <_ZN17ruspiro_allocator6memory10HEAP_START17h21640eff129da783E.llvm.11358094369807046016>
   832b8:	52800028 	mov	w8, #0x1                   	// #1
   832bc:	911b6c00 	add	x0, x0, #0x6db
   832c0:	911aa063 	add	x3, x3, #0x6a8
   832c4:	52800561 	mov	w1, #0x2b                  	// #43
   832c8:	911c0084 	add	x4, x4, #0x700
   832cc:	9103c3e2 	add	x2, sp, #0xf0
   832d0:	39024268 	strb	w8, [x19, #144]
   832d4:	a90f5bf7 	stp	x23, x22, [sp, #240]
   832d8:	940031e6 	bl	8fa70 <_ZN4core6result13unwrap_failed17h6ecc0f20d79874b9E>
   832dc:	d4200020 	brk	#0x1

00000000000832e0 <_ZN97_$LT$core..future..from_generator..GenFuture$LT$T$GT$$u20$as$u20$core..future..future..Future$GT$4poll17h4900f8452ec3aaa4E>:
   832e0:	f81e0ffe 	str	x30, [sp, #-32]!
   832e4:	a9014ff4 	stp	x20, x19, [sp, #16]
   832e8:	aa0003f3 	mov	x19, x0
   832ec:	39404008 	ldrb	w8, [x0, #16]
   832f0:	340001a8 	cbz	w8, 83324 <_ZN97_$LT$core..future..from_generator..GenFuture$LT$T$GT$$u20$as$u20$core..future..future..Future$GT$4poll17h4900f8452ec3aaa4E+0x44>
   832f4:	71000d1f 	cmp	w8, #0x3
   832f8:	54000421 	b.ne	8337c <_ZN97_$LT$core..future..from_generator..GenFuture$LT$T$GT$$u20$as$u20$core..future..future..Future$GT$4poll17h4900f8452ec3aaa4E+0x9c>  // b.any
   832fc:	91002274 	add	x20, x19, #0x8
   83300:	aa1403e0 	mov	x0, x20
   83304:	9400070b 	bl	84f30 <_ZN88_$LT$ruspiro_vchiq..slothandler..SlotHandler$u20$as$u20$core..future..future..Future$GT$4poll17h8986416f11062737E>
   83308:	360001a0 	tbz	w0, #0, 8333c <_ZN97_$LT$core..future..from_generator..GenFuture$LT$T$GT$$u20$as$u20$core..future..future..Future$GT$4poll17h4900f8452ec3aaa4E+0x5c>
   8330c:	52800020 	mov	w0, #0x1                   	// #1
   83310:	52800068 	mov	w8, #0x3                   	// #3
   83314:	39004268 	strb	w8, [x19, #16]
   83318:	a9414ff4 	ldp	x20, x19, [sp, #16]
   8331c:	f84207fe 	ldr	x30, [sp], #32
   83320:	d65f03c0 	ret
   83324:	f9400268 	ldr	x8, [x19]
   83328:	f9000668 	str	x8, [x19, #8]
   8332c:	91002274 	add	x20, x19, #0x8
   83330:	aa1403e0 	mov	x0, x20
   83334:	940006ff 	bl	84f30 <_ZN88_$LT$ruspiro_vchiq..slothandler..SlotHandler$u20$as$u20$core..future..future..Future$GT$4poll17h8986416f11062737E>
   83338:	3707fea0 	tbnz	w0, #0, 8330c <_ZN97_$LT$core..future..from_generator..GenFuture$LT$T$GT$$u20$as$u20$core..future..future..Future$GT$4poll17h4900f8452ec3aaa4E+0x2c>
   8333c:	f9400288 	ldr	x8, [x20]
   83340:	c85f7d09 	ldxr	x9, [x8]
   83344:	d100052a 	sub	x10, x9, #0x1
   83348:	c80bfd0a 	stlxr	w11, x10, [x8]
   8334c:	35ffffab 	cbnz	w11, 83340 <_ZN97_$LT$core..future..from_generator..GenFuture$LT$T$GT$$u20$as$u20$core..future..future..Future$GT$4poll17h4900f8452ec3aaa4E+0x60>
   83350:	f100053f 	cmp	x9, #0x1
   83354:	54000081 	b.ne	83364 <_ZN97_$LT$core..future..from_generator..GenFuture$LT$T$GT$$u20$as$u20$core..future..future..Future$GT$4poll17h4900f8452ec3aaa4E+0x84>  // b.any
   83358:	aa1403e0 	mov	x0, x20
   8335c:	d50339bf 	dmb	ishld
   83360:	97fff9f2 	bl	81b28 <_ZN5alloc4sync12Arc$LT$T$GT$9drop_slow17h2177e060ee23f88eE>
   83364:	2a1f03e0 	mov	w0, wzr
   83368:	52800028 	mov	w8, #0x1                   	// #1
   8336c:	39004268 	strb	w8, [x19, #16]
   83370:	a9414ff4 	ldp	x20, x19, [sp, #16]
   83374:	f84207fe 	ldr	x30, [sp], #32
   83378:	d65f03c0 	ret
   8337c:	b0000080 	adrp	x0, 94000 <anon.98868c38ea5667d973ab3dd5b7fa8ab3.16.llvm.5513183134649085050+0x30>
   83380:	900000e2 	adrp	x2, 9f000 <_ZN17ruspiro_allocator6memory10HEAP_START17h21640eff129da783E.llvm.11358094369807046016>
   83384:	9116c000 	add	x0, x0, #0x5b0
   83388:	52800461 	mov	w1, #0x23                  	// #35
   8338c:	9117a042 	add	x2, x2, #0x5e8
   83390:	940031d0 	bl	8fad0 <_ZN4core9panicking5panic17h546310d45640065bE>
   83394:	d4200020 	brk	#0x1

0000000000083398 <__rust_alloc>:
   83398:	140026fe 	b	8cf90 <__rg_alloc>
   8339c:	00000000 	.inst	0x00000000 ; undefined

00000000000833a0 <__rust_dealloc>:
   833a0:	140026fe 	b	8cf98 <__rg_dealloc>
   833a4:	00000000 	.inst	0x00000000 ; undefined

00000000000833a8 <__rust_realloc>:
   833a8:	1400272e 	b	8d060 <__rg_realloc>
   833ac:	00000000 	.inst	0x00000000 ; undefined

00000000000833b0 <__rust_alloc_zeroed>:
   833b0:	14002772 	b	8d178 <__rg_alloc_zeroed>
   833b4:	00000000 	.inst	0x00000000 ; undefined

00000000000833b8 <__rust_alloc_error_handler>:
   833b8:	140025e2 	b	8cb40 <__rg_oom>
   833bc:	00000000 	.inst	0x00000000 ; undefined

00000000000833c0 <_ZN4core3fmt3num50_$LT$impl$u20$core..fmt..Debug$u20$for$u20$u32$GT$3fmt17h8fa40eacfb48fff9E>:
   833c0:	f81e0ffe 	str	x30, [sp, #-32]!
   833c4:	a9014ff4 	stp	x20, x19, [sp, #16]
   833c8:	aa0003f4 	mov	x20, x0
   833cc:	aa0103e0 	mov	x0, x1
   833d0:	aa0103f3 	mov	x19, x1
   833d4:	9400349b 	bl	90640 <_ZN4core3fmt9Formatter15debug_lower_hex17h50c1b97530acf5c5E>
   833d8:	360000c0 	tbz	w0, #0, 833f0 <_ZN4core3fmt3num50_$LT$impl$u20$core..fmt..Debug$u20$for$u20$u32$GT$3fmt17h8fa40eacfb48fff9E+0x30>
   833dc:	aa1403e0 	mov	x0, x20
   833e0:	aa1303e1 	mov	x1, x19
   833e4:	a9414ff4 	ldp	x20, x19, [sp, #16]
   833e8:	f84207fe 	ldr	x30, [sp], #32
   833ec:	1400293f 	b	8d8e8 <_ZN4core3fmt3num53_$LT$impl$u20$core..fmt..LowerHex$u20$for$u20$i32$GT$3fmt17h9463e80c7778e0b8E>
   833f0:	aa1303e0 	mov	x0, x19
   833f4:	94003497 	bl	90650 <_ZN4core3fmt9Formatter15debug_upper_hex17h0e0d3ddf25643774E>
   833f8:	360000c0 	tbz	w0, #0, 83410 <_ZN4core3fmt3num50_$LT$impl$u20$core..fmt..Debug$u20$for$u20$u32$GT$3fmt17h8fa40eacfb48fff9E+0x50>
   833fc:	aa1403e0 	mov	x0, x20
   83400:	aa1303e1 	mov	x1, x19
   83404:	a9414ff4 	ldp	x20, x19, [sp, #16]
   83408:	f84207fe 	ldr	x30, [sp], #32
   8340c:	1400295d 	b	8d980 <_ZN4core3fmt3num53_$LT$impl$u20$core..fmt..UpperHex$u20$for$u20$i32$GT$3fmt17h9847ea6945293676E>
   83410:	aa1403e0 	mov	x0, x20
   83414:	aa1303e1 	mov	x1, x19
   83418:	a9414ff4 	ldp	x20, x19, [sp, #16]
   8341c:	f84207fe 	ldr	x30, [sp], #32
   83420:	1400307e 	b	8f618 <_ZN4core3fmt3num3imp52_$LT$impl$u20$core..fmt..Display$u20$for$u20$u32$GT$3fmt17he75dbd3be6ad37a7E>
   83424:	00000000 	.inst	0x00000000 ; undefined

0000000000083428 <_ZN4core3ptr13drop_in_place17h6ef7dce446aef1deE>:
   83428:	d65f03c0 	ret
   8342c:	00000000 	.inst	0x00000000 ; undefined

0000000000083430 <_ZN69_$LT$ruspiro_vchiq..state..State$u20$as$u20$core..ops..drop..Drop$GT$4drop17h1748a9673dfd0c5cE>:
   83430:	d10243ff 	sub	sp, sp, #0x90
   83434:	900000e8 	adrp	x8, 9f000 <_ZN17ruspiro_allocator6memory10HEAP_START17h21640eff129da783E.llvm.11358094369807046016>
   83438:	52800029 	mov	w9, #0x1                   	// #1
   8343c:	911f2108 	add	x8, x8, #0x7c8
   83440:	b000002a 	adrp	x10, 88000 <_ZN101_$LT$ruspiro_vchiq..shared..sharedstate..SharedStateAccessor$LT$T$GT$$u20$as$u20$core..fmt..Debug$GT$3fmt17h052a8fac6d7ddaf1E+0x460>
   83444:	913ee14a 	add	x10, x10, #0xfb8
   83448:	f90043fe 	str	x30, [sp, #128]
   8344c:	a9067fff 	stp	xzr, xzr, [sp, #96]
   83450:	910003e0 	mov	x0, sp
   83454:	a90527e8 	stp	x8, x9, [sp, #80]
   83458:	900000e9 	adrp	x9, 9f000 <_ZN17ruspiro_allocator6memory10HEAP_START17h21640eff129da783E.llvm.11358094369807046016>
   8345c:	911ee129 	add	x9, x9, #0x7b8
   83460:	b0000088 	adrp	x8, 94000 <anon.98868c38ea5667d973ab3dd5b7fa8ab3.16.llvm.5513183134649085050+0x30>
   83464:	911d4108 	add	x8, x8, #0x750
   83468:	a9032be9 	stp	x9, x10, [sp, #48]
   8346c:	900000aa 	adrp	x10, 97000 <_ZN4core7unicode12unicode_data15grapheme_extend7OFFSETS17hbef86ff8a98b3e98E+0x4d0>
   83470:	910143e9 	add	x9, sp, #0x50
   83474:	f943314a 	ldr	x10, [x10, #1632]
   83478:	a9077fe8 	stp	x8, xzr, [sp, #112]
   8347c:	52800068 	mov	w8, #0x3                   	// #3
   83480:	a9017fff 	stp	xzr, xzr, [sp, #16]
   83484:	a9042be9 	stp	x9, x10, [sp, #64]
   83488:	900000e9 	adrp	x9, 9f000 <_ZN17ruspiro_allocator6memory10HEAP_START17h21640eff129da783E.llvm.11358094369807046016>
   8348c:	911e2129 	add	x9, x9, #0x788
   83490:	a90023e9 	stp	x9, x8, [sp]
   83494:	9100c3e8 	add	x8, sp, #0x30
   83498:	52800049 	mov	w9, #0x2                   	// #2
   8349c:	a90227e8 	stp	x8, x9, [sp, #32]
   834a0:	94001e22 	bl	8ad28 <_ZN15ruspiro_console6_print17ha7e8cfe4d23036e3E>
   834a4:	f94043fe 	ldr	x30, [sp, #128]
   834a8:	910243ff 	add	sp, sp, #0x90
   834ac:	d65f03c0 	ret

00000000000834b0 <_ZN13ruspiro_vchiq5state5State3new17hf822d2a3dabc11b1E>:
   834b0:	a9ba7bfd 	stp	x29, x30, [sp, #-96]!
   834b4:	a9016ffc 	stp	x28, x27, [sp, #16]
   834b8:	a90267fa 	stp	x26, x25, [sp, #32]
   834bc:	a9035ff8 	stp	x24, x23, [sp, #48]
   834c0:	a90457f6 	stp	x22, x21, [sp, #64]
   834c4:	a9054ff4 	stp	x20, x19, [sp, #80]
   834c8:	d122c3ff 	sub	sp, sp, #0x8b0
   834cc:	52820000 	mov	w0, #0x1000                	// #4096
   834d0:	aa0803fd 	mov	x29, x8
   834d4:	72a00080 	movk	w0, #0x4, lsl #16
   834d8:	94002368 	bl	8c278 <_ZN11ruspiro_mmu10page_align17h49c0bdb605bc955aE>
   834dc:	aa0003f8 	mov	x24, x0
   834e0:	9400236a 	bl	8c288 <_ZN11ruspiro_mmu9page_size17h56612ac136b10d6bE>
   834e4:	aa0003f4 	mov	x20, x0
   834e8:	cb0003e8 	neg	x8, x0
   834ec:	9e670280 	fmov	d0, x20
   834f0:	0e205800 	cnt	v0.8b, v0.8b
   834f4:	2e303800 	uaddlv	h0, v0.8b
   834f8:	1e260009 	fmov	w9, s0
   834fc:	f100053f 	cmp	x9, #0x1
   83500:	1a9f07e9 	cset	w9, ne  // ne = any
   83504:	eb08031f 	cmp	x24, x8
   83508:	1a9f97e8 	cset	w8, hi  // hi = pmore
   8350c:	2a090108 	orr	w8, w8, w9
   83510:	7100011f 	cmp	w8, #0x0
   83514:	9a9813f5 	csel	x21, xzr, x24, ne  // ne = any
   83518:	b4002840 	cbz	x0, 83a20 <_ZN13ruspiro_vchiq5state5State3new17hf822d2a3dabc11b1E+0x570>
   8351c:	35002828 	cbnz	w8, 83a20 <_ZN13ruspiro_vchiq5state5State3new17hf822d2a3dabc11b1E+0x570>
   83520:	aa1503e0 	mov	x0, x21
   83524:	aa1403e1 	mov	x1, x20
   83528:	97ffff9c 	bl	83398 <__rust_alloc>
   8352c:	5280c182 	mov	w2, #0x60c                 	// #1548
   83530:	aa1503e1 	mov	x1, x21
   83534:	b262041a 	orr	x26, x0, #0xc0000000
   83538:	9400232a 	bl	8c1e0 <_ZN11ruspiro_mmu10map_memory17h804a000b2191dbf2E>
   8353c:	900000a9 	adrp	x9, 97000 <_ZN4core7unicode12unicode_data15grapheme_extend7OFFSETS17hbef86ff8a98b3e98E+0x4d0>
   83540:	f90253fa 	str	x26, [sp, #1184]
   83544:	911b23e8 	add	x8, sp, #0x6c8
   83548:	900000ab 	adrp	x11, 97000 <_ZN4core7unicode12unicode_data15grapheme_extend7OFFSETS17hbef86ff8a98b3e98E+0x4d0>
   8354c:	911283ea 	add	x10, sp, #0x4a0
   83550:	aa0003f6 	mov	x22, x0
   83554:	f9433d29 	ldr	x9, [x9, #1656]
   83558:	f9044ff5 	str	x21, [sp, #2200]
   8355c:	f90367e0 	str	x0, [sp, #1736]
   83560:	9119c3e0 	add	x0, sp, #0x670
   83564:	f9036be8 	str	x8, [sp, #1744]
   83568:	912263e8 	add	x8, sp, #0x898
   8356c:	f9036fe9 	str	x9, [sp, #1752]
   83570:	f943416b 	ldr	x11, [x11, #1664]
   83574:	f90377e9 	str	x9, [sp, #1768]
   83578:	900000e9 	adrp	x9, 9f000 <_ZN17ruspiro_allocator6memory10HEAP_START17h21640eff129da783E.llvm.11358094369807046016>
   8357c:	911f6129 	add	x9, x9, #0x7d8
   83580:	f90373ea 	str	x10, [sp, #1760]
   83584:	b000002a 	adrp	x10, 88000 <_ZN101_$LT$ruspiro_vchiq..shared..sharedstate..SharedStateAccessor$LT$T$GT$$u20$as$u20$core..fmt..Debug$GT$3fmt17h052a8fac6d7ddaf1E+0x460>
   83588:	f9037be8 	str	x8, [sp, #1776]
   8358c:	913ee14a 	add	x10, x10, #0xfb8
   83590:	52800068 	mov	w8, #0x3                   	// #3
   83594:	f9025fe9 	str	x9, [sp, #1208]
   83598:	b0000089 	adrp	x9, 94000 <anon.98868c38ea5667d973ab3dd5b7fa8ab3.16.llvm.5513183134649085050+0x30>
   8359c:	9124c129 	add	x9, x9, #0x930
   835a0:	f9037feb 	str	x11, [sp, #1784]
   835a4:	f9035bea 	str	x10, [sp, #1712]
   835a8:	900000aa 	adrp	x10, 97000 <_ZN4core7unicode12unicode_data15grapheme_extend7OFFSETS17hbef86ff8a98b3e98E+0x4d0>
   835ac:	f90263e8 	str	x8, [sp, #1216]
   835b0:	911b43eb 	add	x11, sp, #0x6d0
   835b4:	f90267e9 	str	x9, [sp, #1224]
   835b8:	900000e9 	adrp	x9, 9f000 <_ZN17ruspiro_allocator6memory10HEAP_START17h21640eff129da783E.llvm.11358094369807046016>
   835bc:	911ee129 	add	x9, x9, #0x7b8
   835c0:	f9026be8 	str	x8, [sp, #1232]
   835c4:	f90357e9 	str	x9, [sp, #1704]
   835c8:	9112e3e9 	add	x9, sp, #0x4b8
   835cc:	f943314a 	ldr	x10, [x10, #1632]
   835d0:	f90273e8 	str	x8, [sp, #1248]
   835d4:	f9035fe9 	str	x9, [sp, #1720]
   835d8:	900000e9 	adrp	x9, 9f000 <_ZN17ruspiro_allocator6memory10HEAP_START17h21640eff129da783E.llvm.11358094369807046016>
   835dc:	911e2129 	add	x9, x9, #0x788
   835e0:	f9033fe8 	str	x8, [sp, #1656]
   835e4:	911aa3e8 	add	x8, sp, #0x6a8
   835e8:	f9026feb 	str	x11, [sp, #1240]
   835ec:	f90363ea 	str	x10, [sp, #1728]
   835f0:	f9033be9 	str	x9, [sp, #1648]
   835f4:	52800049 	mov	w9, #0x2                   	// #2
   835f8:	f90347ff 	str	xzr, [sp, #1672]
   835fc:	f90343ff 	str	xzr, [sp, #1664]
   83600:	f9034be8 	str	x8, [sp, #1680]
   83604:	f9034fe9 	str	x9, [sp, #1688]
   83608:	94001dc8 	bl	8ad28 <_ZN15ruspiro_console6_print17ha7e8cfe4d23036e3E>
   8360c:	4b1603e8 	neg	w8, w22
   83610:	92402d08 	and	x8, x8, #0xfff
   83614:	8b0802d9 	add	x25, x22, x8
   83618:	f2402f3f 	tst	x25, #0xfff
   8361c:	540053c1 	b.ne	84094 <_ZN13ruspiro_vchiq5state5State3new17hf822d2a3dabc11b1E+0xbe4>  // b.any
   83620:	91069329 	add	x9, x25, #0x1a4
   83624:	9106d32a 	add	x10, x25, #0x1b4
   83628:	9107132b 	add	x11, x25, #0x1c4
   8362c:	6f00e400 	movi	v0.2d, #0x0
   83630:	cb080308 	sub	x8, x24, x8
   83634:	911b43e0 	add	x0, sp, #0x6d0
   83638:	f9037be9 	str	x9, [sp, #1776]
   8363c:	91065329 	add	x9, x25, #0x194
   83640:	f90393ea 	str	x10, [sp, #1824]
   83644:	9107432a 	add	x10, x25, #0x1d0
   83648:	f903abeb 	str	x11, [sp, #1872]
   8364c:	9100c32b 	add	x11, x25, #0x30
   83650:	f903cbe9 	str	x9, [sp, #1936]
   83654:	91010329 	add	x9, x25, #0x40
   83658:	f903c3ea 	str	x10, [sp, #1920]
   8365c:	9101432a 	add	x10, x25, #0x50
   83660:	f903e3eb 	str	x11, [sp, #1984]
   83664:	9100832b 	add	x11, x25, #0x20
   83668:	f903fbe9 	str	x9, [sp, #2032]
   8366c:	91017329 	add	x9, x25, #0x5c
   83670:	f90413ea 	str	x10, [sp, #2080]
   83674:	910c232a 	add	x10, x25, #0x308
   83678:	3d81b7e0 	str	q0, [sp, #1744]
   8367c:	f9042be9 	str	x9, [sp, #2128]
   83680:	52801009 	mov	w9, #0x80                  	// #128
   83684:	3d81c3e0 	str	q0, [sp, #1792]
   83688:	3d81cfe0 	str	q0, [sp, #1840]
   8368c:	3d81dbe0 	str	q0, [sp, #1888]
   83690:	3d81ebe0 	str	q0, [sp, #1952]
   83694:	3d81f7e0 	str	q0, [sp, #2000]
   83698:	3d8203e0 	str	q0, [sp, #2048]
   8369c:	3d820fe0 	str	q0, [sp, #2096]
   836a0:	f90433eb 	str	x11, [sp, #2144]
   836a4:	f9043bf9 	str	x25, [sp, #2160]
   836a8:	f9043fea 	str	x10, [sp, #2168]
   836ac:	f90443e9 	str	x9, [sp, #2176]
   836b0:	f90447e8 	str	x8, [sp, #2184]
   836b4:	9400141d 	bl	88728 <_ZN13ruspiro_vchiq6shared8slotzero16SlotZeroAccessor10initialize17h1040967d8069885aE>
   836b8:	f9443be9 	ldr	x9, [sp, #2160]
   836bc:	0b180348 	add	w8, w26, w24
   836c0:	b25a0108 	orr	x8, x8, #0x4000000000
   836c4:	aa0003f7 	mov	x23, x0
   836c8:	b8418d3f 	ldr	wzr, [x9, #24]!
   836cc:	b940053f 	ldr	wzr, [x9, #4]
   836d0:	f9025fe8 	str	x8, [sp, #1208]
   836d4:	ab160308 	adds	x8, x24, x22
   836d8:	f9425fea 	ldr	x10, [sp, #1208]
   836dc:	d360fd4b 	lsr	x11, x10, #32
   836e0:	b900012a 	str	w10, [x9]
   836e4:	b900052b 	str	w11, [x9, #4]
   836e8:	54000fe0 	b.eq	838e4 <_ZN13ruspiro_vchiq5state5State3new17hf822d2a3dabc11b1E+0x434>  // b.none
   836ec:	91010109 	add	x9, x8, #0x40
   836f0:	9102010a 	add	x10, x8, #0x80
   836f4:	9103010b 	add	x11, x8, #0xc0
   836f8:	b9000109 	str	w9, [x8]
   836fc:	91040109 	add	x9, x8, #0x100
   83700:	b900410a 	str	w10, [x8, #64]
   83704:	9105010a 	add	x10, x8, #0x140
   83708:	b900810b 	str	w11, [x8, #128]
   8370c:	9106010b 	add	x11, x8, #0x180
   83710:	b900c109 	str	w9, [x8, #192]
   83714:	91070109 	add	x9, x8, #0x1c0
   83718:	b901010a 	str	w10, [x8, #256]
   8371c:	9108010a 	add	x10, x8, #0x200
   83720:	b901410b 	str	w11, [x8, #320]
   83724:	9109010b 	add	x11, x8, #0x240
   83728:	b9018109 	str	w9, [x8, #384]
   8372c:	910a0109 	add	x9, x8, #0x280
   83730:	b901c10a 	str	w10, [x8, #448]
   83734:	910b010a 	add	x10, x8, #0x2c0
   83738:	b902010b 	str	w11, [x8, #512]
   8373c:	910c010b 	add	x11, x8, #0x300
   83740:	b9024109 	str	w9, [x8, #576]
   83744:	910d0109 	add	x9, x8, #0x340
   83748:	b902810a 	str	w10, [x8, #640]
   8374c:	910e010a 	add	x10, x8, #0x380
   83750:	b902c10b 	str	w11, [x8, #704]
   83754:	910f010b 	add	x11, x8, #0x3c0
   83758:	b9030109 	str	w9, [x8, #768]
   8375c:	91100109 	add	x9, x8, #0x400
   83760:	b903410a 	str	w10, [x8, #832]
   83764:	9111010a 	add	x10, x8, #0x440
   83768:	b903810b 	str	w11, [x8, #896]
   8376c:	9112010b 	add	x11, x8, #0x480
   83770:	b903c109 	str	w9, [x8, #960]
   83774:	91130109 	add	x9, x8, #0x4c0
   83778:	b904010a 	str	w10, [x8, #1024]
   8377c:	9114010a 	add	x10, x8, #0x500
   83780:	b904410b 	str	w11, [x8, #1088]
   83784:	9115010b 	add	x11, x8, #0x540
   83788:	b9048109 	str	w9, [x8, #1152]
   8378c:	91160109 	add	x9, x8, #0x580
   83790:	b904c10a 	str	w10, [x8, #1216]
   83794:	9117010a 	add	x10, x8, #0x5c0
   83798:	b905010b 	str	w11, [x8, #1280]
   8379c:	9118010b 	add	x11, x8, #0x600
   837a0:	b9054109 	str	w9, [x8, #1344]
   837a4:	91190109 	add	x9, x8, #0x640
   837a8:	b905810a 	str	w10, [x8, #1408]
   837ac:	911a010a 	add	x10, x8, #0x680
   837b0:	b905c10b 	str	w11, [x8, #1472]
   837b4:	911b010b 	add	x11, x8, #0x6c0
   837b8:	b9060109 	str	w9, [x8, #1536]
   837bc:	911c0109 	add	x9, x8, #0x700
   837c0:	b906410a 	str	w10, [x8, #1600]
   837c4:	911d010a 	add	x10, x8, #0x740
   837c8:	b906810b 	str	w11, [x8, #1664]
   837cc:	911e010b 	add	x11, x8, #0x780
   837d0:	b906c109 	str	w9, [x8, #1728]
   837d4:	911f0109 	add	x9, x8, #0x7c0
   837d8:	b907010a 	str	w10, [x8, #1792]
   837dc:	9120010a 	add	x10, x8, #0x800
   837e0:	b907410b 	str	w11, [x8, #1856]
   837e4:	9121010b 	add	x11, x8, #0x840
   837e8:	b9078109 	str	w9, [x8, #1920]
   837ec:	91220109 	add	x9, x8, #0x880
   837f0:	b907c10a 	str	w10, [x8, #1984]
   837f4:	9123010a 	add	x10, x8, #0x8c0
   837f8:	b908010b 	str	w11, [x8, #2048]
   837fc:	9124010b 	add	x11, x8, #0x900
   83800:	b9084109 	str	w9, [x8, #2112]
   83804:	91250109 	add	x9, x8, #0x940
   83808:	b908810a 	str	w10, [x8, #2176]
   8380c:	9126010a 	add	x10, x8, #0x980
   83810:	b908c10b 	str	w11, [x8, #2240]
   83814:	9127010b 	add	x11, x8, #0x9c0
   83818:	b9090109 	str	w9, [x8, #2304]
   8381c:	91280109 	add	x9, x8, #0xa00
   83820:	b909410a 	str	w10, [x8, #2368]
   83824:	9129010a 	add	x10, x8, #0xa40
   83828:	b909810b 	str	w11, [x8, #2432]
   8382c:	912a010b 	add	x11, x8, #0xa80
   83830:	b909c109 	str	w9, [x8, #2496]
   83834:	912b0109 	add	x9, x8, #0xac0
   83838:	b90a010a 	str	w10, [x8, #2560]
   8383c:	912c010a 	add	x10, x8, #0xb00
   83840:	b90a410b 	str	w11, [x8, #2624]
   83844:	912d010b 	add	x11, x8, #0xb40
   83848:	b90a8109 	str	w9, [x8, #2688]
   8384c:	912e0109 	add	x9, x8, #0xb80
   83850:	b90ac10a 	str	w10, [x8, #2752]
   83854:	912f010a 	add	x10, x8, #0xbc0
   83858:	b90b010b 	str	w11, [x8, #2816]
   8385c:	9130010b 	add	x11, x8, #0xc00
   83860:	b90b4109 	str	w9, [x8, #2880]
   83864:	91310109 	add	x9, x8, #0xc40
   83868:	b90b810a 	str	w10, [x8, #2944]
   8386c:	9132010a 	add	x10, x8, #0xc80
   83870:	b90bc10b 	str	w11, [x8, #3008]
   83874:	9133010b 	add	x11, x8, #0xcc0
   83878:	b90c0109 	str	w9, [x8, #3072]
   8387c:	91340109 	add	x9, x8, #0xd00
   83880:	b90c410a 	str	w10, [x8, #3136]
   83884:	9135010a 	add	x10, x8, #0xd40
   83888:	b90c810b 	str	w11, [x8, #3200]
   8388c:	9136010b 	add	x11, x8, #0xd80
   83890:	b90cc109 	str	w9, [x8, #3264]
   83894:	91370109 	add	x9, x8, #0xdc0
   83898:	b90d010a 	str	w10, [x8, #3328]
   8389c:	9138010a 	add	x10, x8, #0xe00
   838a0:	b90d410b 	str	w11, [x8, #3392]
   838a4:	9139010b 	add	x11, x8, #0xe40
   838a8:	b90d8109 	str	w9, [x8, #3456]
   838ac:	913a0109 	add	x9, x8, #0xe80
   838b0:	b90dc10a 	str	w10, [x8, #3520]
   838b4:	913b010a 	add	x10, x8, #0xec0
   838b8:	b90e010b 	str	w11, [x8, #3584]
   838bc:	913c010b 	add	x11, x8, #0xf00
   838c0:	b90e4109 	str	w9, [x8, #3648]
   838c4:	913d0109 	add	x9, x8, #0xf40
   838c8:	b90e810a 	str	w10, [x8, #3712]
   838cc:	913e010a 	add	x10, x8, #0xf80
   838d0:	b90ec10b 	str	w11, [x8, #3776]
   838d4:	113f010b 	add	w11, w8, #0xfc0
   838d8:	b90f0109 	str	w9, [x8, #3840]
   838dc:	b90f410a 	str	w10, [x8, #3904]
   838e0:	b90f810b 	str	w11, [x8, #3968]
   838e4:	f943cbe8 	ldr	x8, [sp, #1936]
   838e8:	52a00300 	mov	w0, #0x180000              	// #1572864
   838ec:	52800201 	mov	w1, #0x10                  	// #16
   838f0:	b9400913 	ldr	w19, [x8, #8]
   838f4:	b9400518 	ldr	w24, [x8, #4]
   838f8:	97fffea8 	bl	83398 <__rust_alloc>
   838fc:	b4003da0 	cbz	x0, 840b0 <_ZN13ruspiro_vchiq5state5State3new17hf822d2a3dabc11b1E+0xc00>
   83900:	b0000088 	adrp	x8, 94000 <anon.98868c38ea5667d973ab3dd5b7fa8ab3.16.llvm.5513183134649085050+0x30>
   83904:	f9044fe0 	str	x0, [sp, #2200]
   83908:	912263e0 	add	x0, sp, #0x898
   8390c:	52820001 	mov	w1, #0x1000                	// #4096
   83910:	3dc14900 	ldr	q0, [x8, #1312]
   83914:	3d801be0 	str	q0, [sp, #96]
   83918:	f94033e8 	ldr	x8, [sp, #96]
   8391c:	3d800fe0 	str	q0, [sp, #48]
   83920:	f90453e8 	str	x8, [sp, #2208]
   83924:	f94037e8 	ldr	x8, [sp, #104]
   83928:	f90457e8 	str	x8, [sp, #2216]
   8392c:	94000473 	bl	84af8 <_ZN5alloc3vec16Vec$LT$T$C$A$GT$11resize_with17h6eb4db100b5b7942E>
   83930:	52a00060 	mov	w0, #0x30000               	// #196608
   83934:	52800201 	mov	w1, #0x10                  	// #16
   83938:	97fffe98 	bl	83398 <__rust_alloc>
   8393c:	b4003be0 	cbz	x0, 840b8 <_ZN13ruspiro_vchiq5state5State3new17hf822d2a3dabc11b1E+0xc08>
   83940:	3dc00fe0 	ldr	q0, [sp, #48]
   83944:	4b180269 	sub	w9, w19, w24
   83948:	910006fb 	add	x27, x23, #0x1
   8394c:	11000537 	add	w23, w9, #0x1
   83950:	53017ee9 	lsr	w9, w23, #1
   83954:	f90357e0 	str	x0, [sp, #1704]
   83958:	911aa3e0 	add	x0, sp, #0x6a8
   8395c:	aa1f03e1 	mov	x1, xzr
   83960:	3d8017e0 	str	q0, [sp, #80]
   83964:	52820002 	mov	w2, #0x1000                	// #4096
   83968:	f9402be8 	ldr	x8, [sp, #80]
   8396c:	b9002be9 	str	w9, [sp, #40]
   83970:	53185d29 	lsl	w9, w9, #8
   83974:	b9002fe9 	str	w9, [sp, #44]
   83978:	f9035be8 	str	x8, [sp, #1712]
   8397c:	f9402fe8 	ldr	x8, [sp, #88]
   83980:	f9035fe8 	str	x8, [sp, #1720]
   83984:	94000f47 	bl	876a0 <_ZN5alloc7raw_vec19RawVec$LT$T$C$A$GT$7reserve17hbea0d5b38d244081E>
   83988:	f94357e8 	ldr	x8, [sp, #1704]
   8398c:	52800609 	mov	w9, #0x30                  	// #48
   83990:	f9435ff3 	ldr	x19, [sp, #1720]
   83994:	5281fffc 	mov	w28, #0xfff                 	// #4095
   83998:	9b092278 	madd	x24, x19, x9, x8
   8399c:	94002189 	bl	8bfc0 <_ZN83_$LT$ruspiro_lock..sync..semaphore..Semaphore$u20$as$u20$core..default..Default$GT$7default17hdf9b504d2640e72eE>
   839a0:	a9017f1f 	stp	xzr, xzr, [x24, #16]
   839a4:	f100079c 	subs	x28, x28, #0x1
   839a8:	a9000700 	stp	x0, x1, [x24]
   839ac:	b900231f 	str	wzr, [x24, #32]
   839b0:	9100c318 	add	x24, x24, #0x30
   839b4:	54ffff41 	b.ne	8399c <_ZN13ruspiro_vchiq5state5State3new17hf822d2a3dabc11b1E+0x4ec>  // b.any
   839b8:	94002182 	bl	8bfc0 <_ZN83_$LT$ruspiro_lock..sync..semaphore..Semaphore$u20$as$u20$core..default..Default$GT$7default17hdf9b504d2640e72eE>
   839bc:	911b43e8 	add	x8, sp, #0x6d0
   839c0:	b900231f 	str	wzr, [x24, #32]
   839c4:	a9017f1f 	stp	xzr, xzr, [x24, #16]
   839c8:	b27d0108 	orr	x8, x8, #0x8
   839cc:	91400669 	add	x9, x19, #0x1, lsl #12
   839d0:	f9436bf3 	ldr	x19, [sp, #1744]
   839d4:	a9000700 	stp	x0, x1, [x24]
   839d8:	52803702 	mov	w2, #0x1b8                 	// #440
   839dc:	9112e3e0 	add	x0, sp, #0x4b8
   839e0:	aa0803e1 	mov	x1, x8
   839e4:	f9035fe9 	str	x9, [sp, #1720]
   839e8:	9400172c 	bl	89698 <memcpy>
   839ec:	f9444fe8 	ldr	x8, [sp, #2200]
   839f0:	f94453e9 	ldr	x9, [sp, #2208]
   839f4:	f94457ea 	ldr	x10, [sp, #2216]
   839f8:	f9435feb 	ldr	x11, [sp, #1720]
   839fc:	f90343e8 	str	x8, [sp, #1664]
   83a00:	f90347e9 	str	x9, [sp, #1672]
   83a04:	f94357e8 	ldr	x8, [sp, #1704]
   83a08:	f9435be9 	ldr	x9, [sp, #1712]
   83a0c:	f9034bea 	str	x10, [sp, #1680]
   83a10:	f9025beb 	str	x11, [sp, #1200]
   83a14:	f90253e8 	str	x8, [sp, #1184]
   83a18:	f90257e9 	str	x9, [sp, #1192]
   83a1c:	14000033 	b	83ae8 <_ZN13ruspiro_vchiq5state5State3new17hf822d2a3dabc11b1E+0x638>
   83a20:	911b43e8 	add	x8, sp, #0x6d0
   83a24:	b00000e1 	adrp	x1, a0000 <anon.1a117a7f80e0e637aa9c9013fae8bc13.7.llvm.7537277867494894209+0xd0>
   83a28:	912263e9 	add	x9, sp, #0x898
   83a2c:	5280002a 	mov	w10, #0x1                   	// #1
   83a30:	9103a021 	add	x1, x1, #0xe8
   83a34:	911aa3e0 	add	x0, sp, #0x6a8
   83a38:	f9044fe8 	str	x8, [sp, #2200]
   83a3c:	b0000028 	adrp	x8, 88000 <_ZN101_$LT$ruspiro_vchiq..shared..sharedstate..SharedStateAccessor$LT$T$GT$$u20$as$u20$core..fmt..Debug$GT$3fmt17h052a8fac6d7ddaf1E+0x460>
   83a40:	913fa108 	add	x8, x8, #0xfe8
   83a44:	911b43e2 	add	x2, sp, #0x6d0
   83a48:	f9033be9 	str	x9, [sp, #1648]
   83a4c:	f9025fea 	str	x10, [sp, #1208]
   83a50:	f9033fe8 	str	x8, [sp, #1656]
   83a54:	9112e3e8 	add	x8, sp, #0x4b8
   83a58:	f90263ff 	str	xzr, [sp, #1216]
   83a5c:	f90267ff 	str	xzr, [sp, #1224]
   83a60:	f90357e8 	str	x8, [sp, #1704]
   83a64:	900000e8 	adrp	x8, 9f000 <_ZN17ruspiro_allocator6memory10HEAP_START17h21640eff129da783E.llvm.11358094369807046016>
   83a68:	911d0108 	add	x8, x8, #0x740
   83a6c:	f9036fea 	str	x10, [sp, #1752]
   83a70:	f90373ff 	str	xzr, [sp, #1760]
   83a74:	f90377ff 	str	xzr, [sp, #1768]
   83a78:	f9036be8 	str	x8, [sp, #1744]
   83a7c:	9119c3e8 	add	x8, sp, #0x670
   83a80:	f9037fea 	str	x10, [sp, #1784]
   83a84:	f9037be8 	str	x8, [sp, #1776]
   83a88:	94003052 	bl	8fbd0 <_ZN4core3fmt5write17hc1c57cb43223ebd1E>
   83a8c:	350031a0 	cbnz	w0, 840c0 <_ZN13ruspiro_vchiq5state5State3new17hf822d2a3dabc11b1E+0xc10>
   83a90:	f9425fe0 	ldr	x0, [sp, #1208]
   83a94:	911b43e8 	add	x8, sp, #0x6d0
   83a98:	f94267e1 	ldr	x1, [sp, #1224]
   83a9c:	94002357 	bl	8c7f8 <_ZN13ruspiro_error12GenericError12with_message17hd81e7569bc36b84eE>
   83aa0:	f94263e1 	ldr	x1, [sp, #1216]
   83aa4:	b4000081 	cbz	x1, 83ab4 <_ZN13ruspiro_vchiq5state5State3new17hf822d2a3dabc11b1E+0x604>
   83aa8:	f9425fe0 	ldr	x0, [sp, #1208]
   83aac:	52800022 	mov	w2, #0x1                   	// #1
   83ab0:	97fffe3c 	bl	833a0 <__rust_dealloc>
   83ab4:	f9436bf7 	ldr	x23, [sp, #1744]
   83ab8:	52800300 	mov	w0, #0x18                  	// #24
   83abc:	f9436ff3 	ldr	x19, [sp, #1752]
   83ac0:	52800101 	mov	w1, #0x8                   	// #8
   83ac4:	f94373f6 	ldr	x22, [sp, #1760]
   83ac8:	97fffe34 	bl	83398 <__rust_alloc>
   83acc:	b40030e0 	cbz	x0, 840e8 <_ZN13ruspiro_vchiq5state5State3new17hf822d2a3dabc11b1E+0xc38>
   83ad0:	a9004c17 	stp	x23, x19, [x0]
   83ad4:	b00000f3 	adrp	x19, a0000 <anon.1a117a7f80e0e637aa9c9013fae8bc13.7.llvm.7537277867494894209+0xd0>
   83ad8:	aa0003f8 	mov	x24, x0
   83adc:	5280003c 	mov	w28, #0x1                   	// #1
   83ae0:	9102e273 	add	x19, x19, #0xb8
   83ae4:	f9000816 	str	x22, [x0, #16]
   83ae8:	52803702 	mov	w2, #0x1b8                 	// #440
   83aec:	910b83e0 	add	x0, sp, #0x2e0
   83af0:	9112e3e1 	add	x1, sp, #0x4b8
   83af4:	940016e9 	bl	89698 <memcpy>
   83af8:	f9436be8 	ldr	x8, [sp, #1744]
   83afc:	f9436fe9 	ldr	x9, [sp, #1752]
   83b00:	f9434bea 	ldr	x10, [sp, #1680]
   83b04:	3dc19fe0 	ldr	q0, [sp, #1648]
   83b08:	f9016be8 	str	x8, [sp, #720]
   83b0c:	f9016fe9 	str	x9, [sp, #728]
   83b10:	f90163ea 	str	x10, [sp, #704]
   83b14:	f94253e8 	ldr	x8, [sp, #1184]
   83b18:	f94257e9 	ldr	x9, [sp, #1192]
   83b1c:	f9425bea 	ldr	x10, [sp, #1200]
   83b20:	3dc1a3e1 	ldr	q1, [sp, #1664]
   83b24:	f90147e8 	str	x8, [sp, #648]
   83b28:	f9014be9 	str	x9, [sp, #656]
   83b2c:	f9014fea 	str	x10, [sp, #664]
   83b30:	b946abe8 	ldr	w8, [sp, #1704]
   83b34:	395abbe9 	ldrb	w9, [sp, #1710]
   83b38:	794d5bea 	ldrh	w10, [sp, #1708]
   83b3c:	ad1507e0 	stp	q0, q1, [sp, #672]
   83b40:	b90283e8 	str	w8, [sp, #640]
   83b44:	390a1be9 	strb	w9, [sp, #646]
   83b48:	79050bea 	strh	w10, [sp, #644]
   83b4c:	360000bc 	tbz	w28, #0, 83b60 <_ZN13ruspiro_vchiq5state5State3new17hf822d2a3dabc11b1E+0x6b0>
   83b50:	52800028 	mov	w8, #0x1                   	// #1
   83b54:	a900cfb8 	stp	x24, x19, [x29, #8]
   83b58:	f90003a8 	str	x8, [x29]
   83b5c:	14000146 	b	84074 <_ZN13ruspiro_vchiq5state5State3new17hf822d2a3dabc11b1E+0xbc4>
   83b60:	5280371c 	mov	w28, #0x1b8                 	// #440
   83b64:	910323e0 	add	x0, sp, #0xc8
   83b68:	910b83e1 	add	x1, sp, #0x2e0
   83b6c:	aa1c03e2 	mov	x2, x28
   83b70:	940016ca 	bl	89698 <memcpy>
   83b74:	f9416be8 	ldr	x8, [sp, #720]
   83b78:	2a1703e0 	mov	w0, w23
   83b7c:	f9416fe9 	ldr	x9, [sp, #728]
   83b80:	f94163ea 	ldr	x10, [sp, #704]
   83b84:	ad5507e0 	ldp	q0, q1, [sp, #672]
   83b88:	a90ba7e8 	stp	x8, x9, [sp, #184]
   83b8c:	f9005bea 	str	x10, [sp, #176]
   83b90:	f94147e8 	ldr	x8, [sp, #648]
   83b94:	f9414be9 	ldr	x9, [sp, #656]
   83b98:	f9414fea 	ldr	x10, [sp, #664]
   83b9c:	ad0487e0 	stp	q0, q1, [sp, #144]
   83ba0:	a907a7e8 	stp	x8, x9, [sp, #120]
   83ba4:	f90047ea 	str	x10, [sp, #136]
   83ba8:	b94283e8 	ldr	w8, [sp, #640]
   83bac:	394a1be9 	ldrb	w9, [sp, #646]
   83bb0:	79450bea 	ldrh	w10, [sp, #644]
   83bb4:	b90073e8 	str	w8, [sp, #112]
   83bb8:	3901dbe9 	strb	w9, [sp, #118]
   83bbc:	7900ebea 	strh	w10, [sp, #116]
   83bc0:	940020fc 	bl	8bfb0 <_ZN12ruspiro_lock4sync9semaphore9Semaphore3new17hcaaf252d9748e9a5E>
   83bc4:	a90183e1 	stp	x1, x0, [sp, #24]
   83bc8:	2a1f03e0 	mov	w0, wzr
   83bcc:	94001ce3 	bl	8af58 <_ZN12ruspiro_lock5async14asyncsemaphore14AsyncSemaphore3new17h2ce8d8c0018e4071E>
   83bd0:	a90083e1 	stp	x1, x0, [sp, #8]
   83bd4:	9112e3e0 	add	x0, sp, #0x4b8
   83bd8:	910323e1 	add	x1, sp, #0xc8
   83bdc:	aa1c03e2 	mov	x2, x28
   83be0:	940016ae 	bl	89698 <memcpy>
   83be4:	a94ba7e8 	ldp	x8, x9, [sp, #184]
   83be8:	f9405bea 	ldr	x10, [sp, #176]
   83bec:	ad4487e0 	ldp	q0, q1, [sp, #144]
   83bf0:	f90253e8 	str	x8, [sp, #1184]
   83bf4:	f90257e9 	str	x9, [sp, #1192]
   83bf8:	a947a7e8 	ldp	x8, x9, [sp, #120]
   83bfc:	f9034bea 	str	x10, [sp, #1680]
   83c00:	f94047ea 	ldr	x10, [sp, #136]
   83c04:	f90357e8 	str	x8, [sp, #1704]
   83c08:	b94073e8 	ldr	w8, [sp, #112]
   83c0c:	f9035be9 	str	x9, [sp, #1712]
   83c10:	f9035fea 	str	x10, [sp, #1720]
   83c14:	3941dbe9 	ldrb	w9, [sp, #118]
   83c18:	7940ebea 	ldrh	w10, [sp, #116]
   83c1c:	b906cbe8 	str	w8, [sp, #1736]
   83c20:	910b83e8 	add	x8, sp, #0x2e0
   83c24:	3d819fe0 	str	q0, [sp, #1648]
   83c28:	3d81a3e1 	str	q1, [sp, #1664]
   83c2c:	391b3be9 	strb	w9, [sp, #1742]
   83c30:	790d9bea 	strh	w10, [sp, #1740]
   83c34:	94001cc5 	bl	8af48 <_ZN12ruspiro_lock5async10asyncmutex15AsyncMutexInner3new17h58907872f01b5ce7E>
   83c38:	911b43e8 	add	x8, sp, #0x6d0
   83c3c:	910b83e1 	add	x1, sp, #0x2e0
   83c40:	91001d00 	add	x0, x8, #0x7
   83c44:	52800402 	mov	w2, #0x20                  	// #32
   83c48:	94001694 	bl	89698 <memcpy>
   83c4c:	52800800 	mov	w0, #0x40                  	// #64
   83c50:	52800201 	mov	w1, #0x10                  	// #16
   83c54:	97fffdd1 	bl	83398 <__rust_alloc>
   83c58:	b40024c0 	cbz	x0, 840f0 <_ZN13ruspiro_vchiq5state5State3new17hf822d2a3dabc11b1E+0xc40>
   83c5c:	52800028 	mov	w8, #0x1                   	// #1
   83c60:	aa0003fc 	mov	x28, x0
   83c64:	91004400 	add	x0, x0, #0x11
   83c68:	528004e2 	mov	w2, #0x27                  	// #39
   83c6c:	911b43e1 	add	x1, sp, #0x6d0
   83c70:	f9001bfd 	str	x29, [sp, #48]
   83c74:	4e080d00 	dup	v0.2d, x8
   83c78:	3900439f 	strb	wzr, [x28, #16]
   83c7c:	3d800380 	str	q0, [x28]
   83c80:	94001686 	bl	89698 <memcpy>
   83c84:	52803702 	mov	w2, #0x1b8                 	// #440
   83c88:	911b43e0 	add	x0, sp, #0x6d0
   83c8c:	9112e3e1 	add	x1, sp, #0x4b8
   83c90:	94001682 	bl	89698 <memcpy>
   83c94:	f94253e8 	ldr	x8, [sp, #1184]
   83c98:	52805200 	mov	w0, #0x290                 	// #656
   83c9c:	f94257e9 	ldr	x9, [sp, #1192]
   83ca0:	52800201 	mov	w1, #0x10                  	// #16
   83ca4:	f9434bea 	ldr	x10, [sp, #1680]
   83ca8:	3dc19fe0 	ldr	q0, [sp, #1648]
   83cac:	f9044fe8 	str	x8, [sp, #2200]
   83cb0:	f90453e9 	str	x9, [sp, #2208]
   83cb4:	f90183ea 	str	x10, [sp, #768]
   83cb8:	f94357e8 	ldr	x8, [sp, #1704]
   83cbc:	f9435be9 	ldr	x9, [sp, #1712]
   83cc0:	f9435fea 	ldr	x10, [sp, #1720]
   83cc4:	3dc1a3e1 	ldr	q1, [sp, #1664]
   83cc8:	f90153e8 	str	x8, [sp, #672]
   83ccc:	f90157e9 	str	x9, [sp, #680]
   83cd0:	f9015bea 	str	x10, [sp, #688]
   83cd4:	b946cbe8 	ldr	w8, [sp, #1736]
   83cd8:	395b3be9 	ldrb	w9, [sp, #1742]
   83cdc:	794d9bea 	ldrh	w10, [sp, #1740]
   83ce0:	ad1707e0 	stp	q0, q1, [sp, #736]
   83ce4:	b902d3e8 	str	w8, [sp, #720]
   83ce8:	390b5be9 	strb	w9, [sp, #726]
   83cec:	7905abea 	strh	w10, [sp, #724]
   83cf0:	97fffdaa 	bl	83398 <__rust_alloc>
   83cf4:	b4002020 	cbz	x0, 840f8 <_ZN13ruspiro_vchiq5state5State3new17hf822d2a3dabc11b1E+0xc48>
   83cf8:	52800028 	mov	w8, #0x1                   	// #1
   83cfc:	aa0003f8 	mov	x24, x0
   83d00:	91004400 	add	x0, x0, #0x11
   83d04:	910a23e1 	add	x1, sp, #0x288
   83d08:	528001e2 	mov	w2, #0xf                   	// #15
   83d0c:	4e080d00 	dup	v0.2d, x8
   83d10:	3900431f 	strb	wzr, [x24, #16]
   83d14:	3d800300 	str	q0, [x24]
   83d18:	94001660 	bl	89698 <memcpy>
   83d1c:	aa1803fd 	mov	x29, x24
   83d20:	d368fe68 	lsr	x8, x19, #40
   83d24:	d358fe69 	lsr	x9, x19, #24
   83d28:	d350fe6a 	lsr	x10, x19, #16
   83d2c:	52803702 	mov	w2, #0x1b8                 	// #440
   83d30:	911b43e1 	add	x1, sp, #0x6d0
   83d34:	38020fb3 	strb	w19, [x29, #32]!
   83d38:	390017a8 	strb	w8, [x29, #5]
   83d3c:	aa1d03e8 	mov	x8, x29
   83d40:	39000fa9 	strb	w9, [x29, #3]
   83d44:	d360fe69 	lsr	x9, x19, #32
   83d48:	39000baa 	strb	w10, [x29, #2]
   83d4c:	d348fe6a 	lsr	x10, x19, #8
   83d50:	910023a0 	add	x0, x29, #0x8
   83d54:	38004d09 	strb	w9, [x8, #4]!
   83d58:	390007aa 	strb	w10, [x29, #1]
   83d5c:	d378fe69 	lsr	x9, x19, #56
   83d60:	d370fe6a 	lsr	x10, x19, #48
   83d64:	39000d09 	strb	w9, [x8, #3]
   83d68:	3900090a 	strb	w10, [x8, #2]
   83d6c:	9400164b 	bl	89698 <memcpy>
   83d70:	d368fec8 	lsr	x8, x22, #40
   83d74:	d358feca 	lsr	x10, x22, #24
   83d78:	910703a9 	add	x9, x29, #0x1c0
   83d7c:	9107e3a0 	add	x0, x29, #0x1f8
   83d80:	390717a8 	strb	w8, [x29, #453]
   83d84:	d350fec8 	lsr	x8, x22, #16
   83d88:	39070faa 	strb	w10, [x29, #451]
   83d8c:	d360feca 	lsr	x10, x22, #32
   83d90:	39070ba8 	strb	w8, [x29, #450]
   83d94:	d348fec8 	lsr	x8, x22, #8
   83d98:	38004d2a 	strb	w10, [x9, #4]!
   83d9c:	390707a8 	strb	w8, [x29, #449]
   83da0:	d378fec8 	lsr	x8, x22, #56
   83da4:	d370feca 	lsr	x10, x22, #48
   83da8:	912263e1 	add	x1, sp, #0x898
   83dac:	39000d28 	strb	w8, [x9, #3]
   83db0:	d368ff48 	lsr	x8, x26, #40
   83db4:	3900092a 	strb	w10, [x9, #2]
   83db8:	d358ff4a 	lsr	x10, x26, #24
   83dbc:	390737a8 	strb	w8, [x29, #461]
   83dc0:	d350ff48 	lsr	x8, x26, #16
   83dc4:	910723a9 	add	x9, x29, #0x1c8
   83dc8:	39072faa 	strb	w10, [x29, #459]
   83dcc:	39072ba8 	strb	w8, [x29, #458]
   83dd0:	d348ff48 	lsr	x8, x26, #8
   83dd4:	d360ff4a 	lsr	x10, x26, #32
   83dd8:	52800202 	mov	w2, #0x10                  	// #16
   83ddc:	390727a8 	strb	w8, [x29, #457]
   83de0:	d378ff48 	lsr	x8, x26, #56
   83de4:	38004d2a 	strb	w10, [x9, #4]!
   83de8:	39000d28 	strb	w8, [x9, #3]
   83dec:	d368fea8 	lsr	x8, x21, #40
   83df0:	d370ff4a 	lsr	x10, x26, #48
   83df4:	390703b6 	strb	w22, [x29, #448]
   83df8:	390757a8 	strb	w8, [x29, #469]
   83dfc:	d350fea8 	lsr	x8, x21, #16
   83e00:	3900092a 	strb	w10, [x9, #2]
   83e04:	d358feaa 	lsr	x10, x21, #24
   83e08:	39074ba8 	strb	w8, [x29, #466]
   83e0c:	d348fea8 	lsr	x8, x21, #8
   83e10:	910743a9 	add	x9, x29, #0x1d0
   83e14:	39074faa 	strb	w10, [x29, #467]
   83e18:	d360feaa 	lsr	x10, x21, #32
   83e1c:	390747a8 	strb	w8, [x29, #465]
   83e20:	d378fea8 	lsr	x8, x21, #56
   83e24:	390723ba 	strb	w26, [x29, #456]
   83e28:	38004d2a 	strb	w10, [x9, #4]!
   83e2c:	39000d28 	strb	w8, [x9, #3]
   83e30:	d368fe88 	lsr	x8, x20, #40
   83e34:	d370feaa 	lsr	x10, x21, #48
   83e38:	390743b5 	strb	w21, [x29, #464]
   83e3c:	390777a8 	strb	w8, [x29, #477]
   83e40:	d350fe88 	lsr	x8, x20, #16
   83e44:	3900092a 	strb	w10, [x9, #2]
   83e48:	d358fe8a 	lsr	x10, x20, #24
   83e4c:	39076ba8 	strb	w8, [x29, #474]
   83e50:	d348fe88 	lsr	x8, x20, #8
   83e54:	910763a9 	add	x9, x29, #0x1d8
   83e58:	39076faa 	strb	w10, [x29, #475]
   83e5c:	d360fe8a 	lsr	x10, x20, #32
   83e60:	390767a8 	strb	w8, [x29, #473]
   83e64:	d378fe88 	lsr	x8, x20, #56
   83e68:	390763b4 	strb	w20, [x29, #472]
   83e6c:	38004d2a 	strb	w10, [x9, #4]!
   83e70:	39000d28 	strb	w8, [x9, #3]
   83e74:	d368ff28 	lsr	x8, x25, #40
   83e78:	d370fe8a 	lsr	x10, x20, #48
   83e7c:	390783b9 	strb	w25, [x29, #480]
   83e80:	390797a8 	strb	w8, [x29, #485]
   83e84:	d350ff28 	lsr	x8, x25, #16
   83e88:	3900092a 	strb	w10, [x9, #2]
   83e8c:	d358ff2a 	lsr	x10, x25, #24
   83e90:	39078ba8 	strb	w8, [x29, #482]
   83e94:	d348ff28 	lsr	x8, x25, #8
   83e98:	910783a9 	add	x9, x29, #0x1e0
   83e9c:	39078faa 	strb	w10, [x29, #483]
   83ea0:	d360ff2a 	lsr	x10, x25, #32
   83ea4:	390787a8 	strb	w8, [x29, #481]
   83ea8:	d378ff28 	lsr	x8, x25, #56
   83eac:	3907a3bb 	strb	w27, [x29, #488]
   83eb0:	38004d2a 	strb	w10, [x9, #4]!
   83eb4:	39000d28 	strb	w8, [x9, #3]
   83eb8:	d368ff68 	lsr	x8, x27, #40
   83ebc:	d370ff2a 	lsr	x10, x25, #48
   83ec0:	3907d7bf 	strb	wzr, [x29, #501]
   83ec4:	3907b7a8 	strb	w8, [x29, #493]
   83ec8:	d350ff68 	lsr	x8, x27, #16
   83ecc:	3900092a 	strb	w10, [x9, #2]
   83ed0:	d358ff6a 	lsr	x10, x27, #24
   83ed4:	3907aba8 	strb	w8, [x29, #490]
   83ed8:	d348ff68 	lsr	x8, x27, #8
   83edc:	9107a3a9 	add	x9, x29, #0x1e8
   83ee0:	3907afaa 	strb	w10, [x29, #491]
   83ee4:	d360ff6a 	lsr	x10, x27, #32
   83ee8:	3907a7a8 	strb	w8, [x29, #489]
   83eec:	d378ff68 	lsr	x8, x27, #56
   83ef0:	3907cfbf 	strb	wzr, [x29, #499]
   83ef4:	38004d2a 	strb	w10, [x9, #4]!
   83ef8:	39000d28 	strb	w8, [x9, #3]
   83efc:	9107c3a8 	add	x8, x29, #0x1f0
   83f00:	d370ff6a 	lsr	x10, x27, #48
   83f04:	3907cbbf 	strb	wzr, [x29, #498]
   83f08:	3907c7bf 	strb	wzr, [x29, #497]
   83f0c:	3900092a 	strb	w10, [x9, #2]
   83f10:	38004d1f 	strb	wzr, [x8, #4]!
   83f14:	3907c3bf 	strb	wzr, [x29, #496]
   83f18:	39000d1f 	strb	wzr, [x8, #3]
   83f1c:	3900091f 	strb	wzr, [x8, #2]
   83f20:	940015de 	bl	89698 <memcpy>
   83f24:	910823a8 	add	x8, x29, #0x208
   83f28:	910843a0 	add	x0, x29, #0x210
   83f2c:	52800502 	mov	w2, #0x28                  	// #40
   83f30:	910b83e1 	add	x1, sp, #0x2e0
   83f34:	390837bf 	strb	wzr, [x29, #525]
   83f38:	39082fbf 	strb	wzr, [x29, #523]
   83f3c:	39082bbf 	strb	wzr, [x29, #522]
   83f40:	390827bf 	strb	wzr, [x29, #521]
   83f44:	38004d1f 	strb	wzr, [x8, #4]!
   83f48:	390823bf 	strb	wzr, [x29, #520]
   83f4c:	39000d1f 	strb	wzr, [x8, #3]
   83f50:	3900091f 	strb	wzr, [x8, #2]
   83f54:	940015d1 	bl	89698 <memcpy>
   83f58:	9108e3a0 	add	x0, x29, #0x238
   83f5c:	910a83e1 	add	x1, sp, #0x2a0
   83f60:	52800302 	mov	w2, #0x18                  	// #24
   83f64:	940015cd 	bl	89698 <memcpy>
   83f68:	6f00e400 	movi	v0.2d, #0x0
   83f6c:	910943a8 	add	x8, x29, #0x250
   83f70:	53187ee9 	lsr	w9, w23, #24
   83f74:	9109a7a0 	add	x0, x29, #0x269
   83f78:	29452beb 	ldp	w11, w10, [sp, #40]
   83f7c:	910b43e1 	add	x1, sp, #0x2d0
   83f80:	528000e2 	mov	w2, #0x7                   	// #7
   83f84:	39096fa9 	strb	w9, [x29, #603]
   83f88:	53107ee9 	lsr	w9, w23, #16
   83f8c:	38004d1f 	strb	wzr, [x8, #4]!
   83f90:	39096ba9 	strb	w9, [x29, #602]
   83f94:	9e660009 	fmov	x9, d0
   83f98:	39000d1f 	strb	wzr, [x8, #3]
   83f9c:	3900091f 	strb	wzr, [x8, #2]
   83fa0:	53087ee8 	lsr	w8, w23, #8
   83fa4:	390957bf 	strb	wzr, [x29, #597]
   83fa8:	390967a8 	strb	w8, [x29, #601]
   83fac:	53187d68 	lsr	w8, w11, #24
   83fb0:	39094fbf 	strb	wzr, [x29, #595]
   83fb4:	39098fa8 	strb	w8, [x29, #611]
   83fb8:	53087d68 	lsr	w8, w11, #8
   83fbc:	390943a9 	strb	w9, [x29, #592]
   83fc0:	53107d69 	lsr	w9, w11, #16
   83fc4:	390987a8 	strb	w8, [x29, #609]
   83fc8:	53187d48 	lsr	w8, w10, #24
   83fcc:	39098ba9 	strb	w9, [x29, #610]
   83fd0:	53107d49 	lsr	w9, w10, #16
   83fd4:	39099fa8 	strb	w8, [x29, #615]
   83fd8:	53087d48 	lsr	w8, w10, #8
   83fdc:	39094bbf 	strb	wzr, [x29, #594]
   83fe0:	390947bf 	strb	wzr, [x29, #593]
   83fe4:	390963b7 	strb	w23, [x29, #600]
   83fe8:	39097fbf 	strb	wzr, [x29, #607]
   83fec:	39097bbf 	strb	wzr, [x29, #606]
   83ff0:	390977bf 	strb	wzr, [x29, #605]
   83ff4:	390973bf 	strb	wzr, [x29, #604]
   83ff8:	390983ab 	strb	w11, [x29, #608]
   83ffc:	39099ba9 	strb	w9, [x29, #614]
   84000:	390997a8 	strb	w8, [x29, #613]
   84004:	390993aa 	strb	w10, [x29, #612]
   84008:	3909a3bf 	strb	wzr, [x29, #616]
   8400c:	940015a3 	bl	89698 <memcpy>
   84010:	52800400 	mov	w0, #0x20                  	// #32
   84014:	52800101 	mov	w1, #0x8                   	// #8
   84018:	97fffce0 	bl	83398 <__rust_alloc>
   8401c:	b4000760 	cbz	x0, 84108 <_ZN13ruspiro_vchiq5state5State3new17hf822d2a3dabc11b1E+0xc58>
   84020:	52800028 	mov	w8, #0x1                   	// #1
   84024:	f9401bf3 	ldr	x19, [sp, #48]
   84028:	911b43e1 	add	x1, sp, #0x6d0
   8402c:	528000e2 	mov	w2, #0x7                   	// #7
   84030:	4e080d00 	dup	v0.2d, x8
   84034:	3d8013e0 	str	q0, [sp, #64]
   84038:	f94027e8 	ldr	x8, [sp, #72]
   8403c:	f9000408 	str	x8, [x0, #8]
   84040:	a941abe8 	ldp	x8, x10, [sp, #24]
   84044:	f94023e9 	ldr	x9, [sp, #64]
   84048:	a901601c 	stp	x28, x24, [x0, #16]
   8404c:	f9001a60 	str	x0, [x19, #48]
   84050:	a901226a 	stp	x10, x8, [x19, #16]
   84054:	a940abe8 	ldp	x8, x10, [sp, #8]
   84058:	f9000009 	str	x9, [x0]
   8405c:	3900e27f 	strb	wzr, [x19, #56]
   84060:	a902226a 	stp	x10, x8, [x19, #32]
   84064:	9100e668 	add	x8, x19, #0x39
   84068:	aa0803e0 	mov	x0, x8
   8406c:	9400158b 	bl	89698 <memcpy>
   84070:	f900027f 	str	xzr, [x19]
   84074:	9122c3ff 	add	sp, sp, #0x8b0
   84078:	a9454ff4 	ldp	x20, x19, [sp, #80]
   8407c:	a94457f6 	ldp	x22, x21, [sp, #64]
   84080:	a9435ff8 	ldp	x24, x23, [sp, #48]
   84084:	a94267fa 	ldp	x26, x25, [sp, #32]
   84088:	a9416ffc 	ldp	x28, x27, [sp, #16]
   8408c:	a8c67bfd 	ldp	x29, x30, [sp], #96
   84090:	d65f03c0 	ret
   84094:	90000080 	adrp	x0, 94000 <anon.98868c38ea5667d973ab3dd5b7fa8ab3.16.llvm.5513183134649085050+0x30>
   84098:	f00000c2 	adrp	x2, 9f000 <_ZN17ruspiro_allocator6memory10HEAP_START17h21640eff129da783E.llvm.11358094369807046016>
   8409c:	91276000 	add	x0, x0, #0x9d8
   840a0:	91202042 	add	x2, x2, #0x808
   840a4:	528007e1 	mov	w1, #0x3f                  	// #63
   840a8:	94002e8a 	bl	8fad0 <_ZN4core9panicking5panic17h546310d45640065bE>
   840ac:	d4200020 	brk	#0x1
   840b0:	52a00300 	mov	w0, #0x180000              	// #1572864
   840b4:	14000012 	b	840fc <_ZN13ruspiro_vchiq5state5State3new17hf822d2a3dabc11b1E+0xc4c>
   840b8:	52a00060 	mov	w0, #0x30000               	// #196608
   840bc:	14000010 	b	840fc <_ZN13ruspiro_vchiq5state5State3new17hf822d2a3dabc11b1E+0xc4c>
   840c0:	90000080 	adrp	x0, 94000 <anon.98868c38ea5667d973ab3dd5b7fa8ab3.16.llvm.5513183134649085050+0x30>
   840c4:	f00000c3 	adrp	x3, 9f000 <_ZN17ruspiro_allocator6memory10HEAP_START17h21640eff129da783E.llvm.11358094369807046016>
   840c8:	f00000c4 	adrp	x4, 9f000 <_ZN17ruspiro_allocator6memory10HEAP_START17h21640eff129da783E.llvm.11358094369807046016>
   840cc:	911d4000 	add	x0, x0, #0x750
   840d0:	911da063 	add	x3, x3, #0x768
   840d4:	528006e1 	mov	w1, #0x37                  	// #55
   840d8:	911d4084 	add	x4, x4, #0x750
   840dc:	911b43e2 	add	x2, sp, #0x6d0
   840e0:	94002e64 	bl	8fa70 <_ZN4core6result13unwrap_failed17h6ecc0f20d79874b9E>
   840e4:	d4200020 	brk	#0x1
   840e8:	52800300 	mov	w0, #0x18                  	// #24
   840ec:	14000008 	b	8410c <_ZN13ruspiro_vchiq5state5State3new17hf822d2a3dabc11b1E+0xc5c>
   840f0:	52800800 	mov	w0, #0x40                  	// #64
   840f4:	14000002 	b	840fc <_ZN13ruspiro_vchiq5state5State3new17hf822d2a3dabc11b1E+0xc4c>
   840f8:	52805200 	mov	w0, #0x290                 	// #656
   840fc:	52800201 	mov	w1, #0x10                  	// #16
   84100:	940022f6 	bl	8ccd8 <_ZN5alloc5alloc18handle_alloc_error17h4609a7d668d8bcf9E>
   84104:	d4200020 	brk	#0x1
   84108:	52800400 	mov	w0, #0x20                  	// #32
